
 Start         Length     Name                   Class
 0001:00000000 0000A0B79H cseg                   CODE
 0002:00000000 0000C5FC0H dseg                   STACK


  Address         Publics by Value

 0001:00000000       __int_3
 0001:00000001       JumpToInt3
 0001:00000003       ___begtext
 0001:00000010       main_
 0001:000004F9       SelectAndShowSquadToView
 0001:000005D7       SquadInit
 0001:00000F3B       SquadFinish
 0001:000013FC       SelectTraining
 0001:0000141F       SelectGoals
 0001:0000144E       SquadOnSelect11
 0001:00001478       j_SetExitMenuFlag
 0001:0000147D       SquadOnSelect45
 0001:000014AC       Squad45AfterDraw
 0001:000016E7       nullsub_25
 0001:00002493       SquadCommon
 0001:00002794       SquadAfterDrawCommon
 0001:00003805       SquadMenuSavePlayerPositions
 0001:0000397F       UpdateBigCheckMark
 0001:00003EC3       SetMenuEntryPlayerFace
 0001:00003EFB       select_teams_for_tactics_menu
 0001:00004441       SelTeamForTacticsInit
 0001:00004733       SelTeamForTacticsExit
 0001:00004741       SelTeamForTacticsCommon
 0001:000049CD       ChooseTeamForEditTactics
 0001:00004C3A       RotatePlayersLeft
 0001:00004CD9       FormTopSkillsString
 0001:000051CC       InitIntroAnimation
 0001:000052D3       PlayIntroAnimation
 0001:00005375       SoccerBinCopySec3To4
 0001:00005397       OpenSoccerBin
 0001:000053B2       CloseSoccerBin
 0001:000053BD       ReadFromSoccerBin
 0001:000053E6       IntroDrawFrame
 0001:0000552D       WaitForIntroTickChange
 0001:0000553D       BumpIntroTimers
 0001:00005574       CopySoccerBinSection
 0001:00005584       IntroWaitNextFrameInterval
 0001:0000559D       IntroEnsureFrameDataLoaded
 0001:00005758       SWOS
 0001:000058C1       ToMainGameLoop
 0001:000059B7       StartMainGameLoop
 0001:00005A0D       GameLoop
 0001:00005D94       main_loop
 0001:000060BE       KeepStatisticsOnScreen
 0001:000060DE       Rand
 0001:00006176       MainKeysCheck
 0001:000066DB       nullsub_29
 0001:000066DC       nullsub_30
 0001:000066DD       nullsub_31
 0001:000066DE       AssignFakeGoalsToScorers
 0001:00006A08       ReplayExitMenuAfterFriendly
 0001:00006B62       DrawReplayContinueMenu
 0001:00006C99       DrawMenuBack150x20
 0001:00006F90       DrawReplayContinueShiningFrame
 0001:000071B3       PlayReplayFrame
 0001:0000734D       PlayHighlightsLoop
 0001:000074C5       ViewHighlights
 0001:000074FD       ViewHighLightsMain
 0001:0000763E       FillColorfulnessTable
 0001:0000767C       FillColorfulnessTableElement
 0001:00007AE3       SortColorsByIntensity
 0001:00007B4C       FixupInitialCharset
 0001:00007B67       FixupCharset
 0001:00007B80       LoadSoundEffects
 0001:00007C25       LoadIntroCheers
 0001:00007CD1       LoadEndingSample
 0001:00007DC3       LoadCommentary
 0001:00007E29       PlayCrowdNoiseSample
 0001:00007E8B       PlayMissGoalSample
 0001:00007EDF       PlayHomeGoalSample
 0001:00007F33       PlayHomeGoalSample2
 0001:00007F87       PlayRefereeEndGameWhistleSample
 0001:00007FCD       PlayEndGameWhistleSample
 0001:00008013       PlayFoulWhistleSample
 0001:00008059       PlayKickSample
 0001:0000809F       PlayBallBounceSample2
 0001:000080E5       nullsub_1
 0001:000080E6       PlayFansChant4lSample
 0001:0000812C       PlayFansChant10lSample
 0001:00008172       PlayFansChant8lSample
 0001:000081B8       PlayIntroChantSample
 0001:000081ED       PlayResultSample
 0001:000083F4       PlaySamples
 0001:0000858D       TurnCrowdChantsOn
 0001:000085C5       TurnCrowdChantsOff
 0001:000085DD       nullsub_26
 0001:000085DE       PlayStartGameSample
 0001:0000866B       LoadAndPlayEndingSample
 0001:00008707       EnqueueCornerSample
 0001:00008711       EnqueueThrowInSample
 0001:0000871B       EnqueueTacticsChangedSample
 0001:00008725       EnqueueSubstituteSample
 0001:0000872F       EnqueueRedCardSample
 0001:00008739       EnqueueYellowCardSample
 0001:00008743       PlayGoodJumpHeaderComment
 0001:0000878C       PlayPenaltyGoalComment
 0001:000087CE       PlayPenaltyMissComment
 0001:00008810       PlaySavedPenaltyComment
 0001:00008852       PlayPenaltyComment
 0001:00008894       PlayFoulComment
 0001:000088CD       PlayHarderFoulComment
 0001:00008906       EnqueueDeletedSample
 0001:00008910       StopGoodPassSample
 0001:0000891A       UpdatePlayingGoodPassTimer
 0001:00008948       PlayGoodPassComment
 0001:00008991       PlayGoodTackleComment
 0001:000089DA       PlayGoalFrameHitComment
 0001:00008A13       PlayBarHitComment
 0001:00008A4C       PlayHitWoodworkComment
 0001:00008A85       PlayKeeperClaimedComment
 0001:00008ABE       PlayNearMissComment
 0001:00008B13       PlayGoalkeeperSavedComment
 0001:00008B68       PlayOwnGoalComment
 0001:00008BA1       PlayGoalComment
 0001:00008BF6       PlayCommentarySamples
 0001:00008C98       PlayYellowCardSample
 0001:00008CB7       PlayRedCardSample
 0001:00008D5C       PlayCornerSample
 0001:00008D89       PlayTacticsChangeSample
 0001:00008DAB       PlaySubstituteSample
 0001:00008DCD       PlayThrowInSample
 0001:00008DEF       PlayDrawComment
 0001:00008E0E       PlayItsBeenACompleteRoutComment
 0001:00008E2D       PlaySensationalGameComment
 0001:00008E4C       LoadAndPlayEndingComment
 0001:00008EE2       PlaySampleFromTable
 0001:00008F78       LoadAnimation
 0001:00009083       LoadAndPlayEndGameComment
 0001:000090FE       ShowChairmanScene
 0001:000092BE       Initialization
 0001:00009584       AllocateDosMemory
 0001:00009629       CDROM_DriverError
 0001:00009637       CalcMaxBlock
 0001:0000968A       MemAllocError
 0001:000096CB       InitializationError
 0001:00009744       end_program
 0001:0000976E       nullsub_2
 0001:0000977D       NumberToString6Digits
 0001:000097F1       ReadSetupDat
 0001:00009819       TimerProc
 0001:00009870       Int9KeyboardHandler
 0001:000098ED       EndProgramInterruptHandler
 0001:000098F7       EndProgramSetTextVideoMode
 0001:0000991A       SetPrevVideoModeEndProgram
 0001:00009923       EndProgram
 0001:00009940       RingABell
 0001:0000995F       ProgramPIT
 0001:00009977       WaitRetrace
 0001:00009982       FadeOutToBlack
 0001:00009987       FadeOut
 0001:000099D4       SetPalette
 0001:00009A0C       VerifyJoypadControls
 0001:00009A72       ReadGamePort
 0001:00009AE2       Joy1SetStatus
 0001:00009B66       Joy1NormalizeReadings
 0001:00009B7B       Joy1NormalizeX
 0001:00009BEC       Joy1NormalizeY
 0001:00009C5D       Joy2SetStatus
 0001:00009CE0       Joy2NormalizeReadings
 0001:00009CF5       Joy2NormalizeX
 0001:00009D66       Joy2NormalizeY
 0001:00009DD7       Player1StatusProc
 0001:00009F96       Player2StatusProc
 0001:0000A155       WriteFile
 0001:0000A1A8       LoadFile
 0001:0000A250       FlipInMenu
 0001:0000A2B3       SetControlWord
 0001:0000A45F       nullsub_32
 0001:0000A460       FillPalettes
 0001:0000A4B7       StopMidi
 0001:0000A4D0       TryMidiPlay
 0001:0000A4F9       InitMenuMusic
 0001:0000A6AE       GetKey
 0001:0000A911       DumpSfxSampleChannel
 0001:0000A929       DumpTimerVariables
 0001:0000A9CC       DumpBallAndControlVariables
 0001:0000ABDB       TeamHexDumpToSecondMonitor
 0001:0000AC33       DumpVariable
 0001:0000AC6C       TwoNibbles2Hex
 0001:0000AC8E       WriteHexByteWrapper
 0001:0000ACAD       WriteHexByte
 0001:0000ACBE       WriteNibble
 0001:0000ACCF       hexDigits
 0001:0000ACE0       nullString
 0001:0000ACE1       aCentre2
 0001:0000ACEB       aRawjoy1
 0001:0000ACF5       aRawjoy2
 0001:0000ACFF       aLeft_r
 0001:0000AD09       aRight_r
 0001:0000AD13       aUp_r
 0001:0000AD1D       aDown_r
 0001:0000AD4D       SetKeyboardHandler
 0001:0000AD76       RestoreOldInt9Handler
 0001:0000AD91       DumpScreen
 0001:0000ADFB       ReadCommandLineParameters
 0001:0000AE60       DetectCPU
 0001:0000AEAC       CDROM_InitCheck
 0001:0000AF11       SelectDefaultDrive
 0001:0000AF1E       CDChangeToRootDir
 0001:0000AF34       CDROM_GetInfo
 0001:0000AF5D       CDROM_Input
 0001:0000AFA3       FindCdrom
 0001:0000B073       CheckForCD
 0001:0000B0BA       IOCTL_CDROM_Read
 0001:0000B0F9       CalcLogicalSectorNumber
 0001:0000B124       CDROM_PlayAudio
 0001:0000B1E5       CDROM_StopAudio
 0001:0000B225       set_some_more_cd_rom_stuff
 0001:0000B284       set_some_cd_rom_stuff
 0001:0000B36B       CDROM_ControlAudio
 0001:0000B3D6       FadeOutXmidi
 0001:0000B417       FadeOutCDAudio
 0001:0000B4A1       CDROM_Seek
 0001:0000B50A       RequestToCDRom
 0001:0000B537       NullInterruptHandler
 0001:0000B5D1       TimeRetraceAndScreenDraw
 0001:0000B604       WaitForDrawingEnd
 0001:0000B611       screen_drawing_now
 0001:0000B617       WaitForRetraceEnd
 0001:0000B624       RetraceInProgress
 0001:0000BC61       Text2Sprite
 0001:0000BF38       AdjustFanColor
 0001:0000BF68       EGAAdjustFansColor
 0001:0000C137       ConvertSpriteColors
 0001:0000C3D2       UnchainSpriteInMenus
 0001:0000C3FE       DoUnchainSpriteInMenus
 0001:0000C5B4       DrawEmptyMenuItem
 0001:0000C68B       CopySprite
 0001:0000C76D       DrawSpriteCentered
 0001:0000C7E2       DrawSprite
 0001:0000C842       DrawSprite_entry2
 0001:0000C964       ClearSprite
 0001:0000CA10       DrawChar
 0001:0000CBAA       DrawSpriteInGame
 0001:0000CC4A       DrawSpriteInColor
 0001:0000CDE0       DarkenRectangle
 0001:0000CEB0       FillRectangle
 0001:0000CF3E       DrawSprite16Pixels
 0001:0000CFC6       clip_y
 0001:0000D238       SaveSprite
 0001:0000D2CB       ClearBackground
 0001:0000D371       InitSavedSprites
 0001:0000D476       DrawScorerNamesSprites
 0001:0000D4D7       TextToGoalScorersSprites
 0001:0000D5D1       ClearScorerNamesSprites
 0001:0000D622       PrepareMenuForFadeIn
 0001:0000D640       DummyProc01
 0001:0000D65C       LoadTitleAndStartMusic
 0001:0000D672       ShowMenu
 0001:0000D6F3       RestorePreviousMenu
 0001:0000D782       SetCurrentEntry
 0001:0000D7A0       SetExitMenuFlag
 0001:0000D7AA       LoadFillAndSwtitle
 0001:0000D804       CallToWaitRetrace
 0001:0000D80A       FadeIn
 0001:0000D815       MainMenu
 0001:0000D826       InitMainMenu
 0001:0000D86B       nullsub_4
 0001:0000D86C       ChainFont
 0001:0000D8CB       ReadTimerDelta
 0001:0000D907       InitMainMenuStuff
 0001:0000DA2A       SetDefaultNameAndSurname
 0001:0000DAE7       PrepareMenu
 0001:0000DB81       CalcMenuEntryAddress
 0001:0000DC06       DrawMenu
 0001:0000DDAB       MenuProc
 0001:0000E2C5       DrawAllItems2
 0001:0000E2E8       DrawMultipleItems
 0001:0000E33B       CallDrawMenuItem
 0001:0000E341       DrawMenuItem
 0001:0000ED94       DrawBackAllItems
 0001:0000EDCD       DrawMenuBackWithCheck
 0001:0000EE9A       DrawSelected
 0001:0000EF39       DrawMenuFrame
 0001:0000F12E       DrawMenuBack
 0001:0000F18F       CopyWholeSprite
 0001:0000F1CD       nullsub_5
 0001:0000F1CE       DrawMenuText
 0001:0000F3B8       DrawMenuTextRight
 0001:0000F3FF       DrawMenuTextCentered
 0001:0000F455       GetTextSize
 0001:0000F55F       ZeroOutStars
 0001:0000F5AF       InitCareerVariables
 0001:0000F60C       StringCopy
 0001:0000F634       Rand2
 0001:0000F6CC       Randomize2
 0001:0000F748       GetStringLength
 0001:0000F788       PrimitivePrintf
 0001:0000FAD5       ConvertMenu
 0001:0000FE2A       convert_menu_switch
 0001:0000FF58       next_entry
 0001:0000FFB9       invisibleItem
 0001:0000FFCA       setPositions
 0001:0001002B       leftSkip
 0001:00010036       right_skip
 0001:00010041       upSkip
 0001:0001004C       downSkip
 0001:00010098       onSelectFireOnly
 0001:000100C1       onSelect
 0001:000100F8       beforeDrawFunc
 0001:00010115       afterDrawFunc
 0001:00010132       func1
 0001:0001015B       entryFrame
 0001:00010192       sprite1
 0001:000101C9       invalidType
 0001:00010200       func2
 0001:00010235       stringEntry
 0001:000102A9       stringTable
 0001:000102EC       multiLineText
 0001:0001032F       sprite2
 0001:00010372       number
 0001:000103C3       spriteCopy
 0001:00010401       InitMenuEntry
 0001:00010467       menuTypesJumpTable
 0001:000104BF       Int2Ascii
 0001:00010620       DrawOuterFrame
 0001:00010829       CheckControls
 0001:00010CCA       InputText
 0001:00010DC3       insert_cursor
 0001:00010F3D       InsertCharacter
 0001:00010F92       delete
 0001:00010FA9       delete_char
 0001:00010FB3       DeleteCharacter
 0001:00010FEF       FilterKeys
 0001:00011091       controlChars
 0001:0001109C       fatal_error
 0001:0001109D       endless_loop
 0001:0001109F       InitUserTactics
 0001:000113DD       InitializeTacticsPositions
 0001:00011670       nullsub_17
 0001:00011744       StringCopyUntilChar
 0001:00011790       OptionsMenuBeforeDraw
 0001:0001181F       ChangePitchType
 0001:0001183F       ChangeGameLength
 0001:0001185F       ChangeAutoReplays
 0001:0001186C       ChangeAllPlTeamsEqual
 0001:00011879       ChangeAutoSaveHighlights
 0001:00011886       ChangeMenuMusic
 0001:00011898       ChangeCommentary
 0001:000118A5       ChangeChairmanScenes
 0001:000118B2       ExitOptions
 0001:0001193D       QuitToDosMenu
 0001:00011943       SetDefaultOptions
 0001:000119B2       SaveOptions
 0001:000119F9       RestoreOptions
 0001:00011A40       CycleMenuMusic
 0001:00011A55       QuitToDosPromptLoop
 0001:00011BB1       DrawExitMenu
 0001:00011CE8       DrawMenuBackFrame_w150h20
 0001:00011FDF       DrawQuitToDosShiningFrame
 0001:00012204       SWOSMainMenuInit
 0001:00012219       globalRetn
 0001:0001221A       CommonMenuExit
 0001:0001240B       FriendlyMenu
 0001:00012421       DIYCompetitionMenu
 0001:000124A6       PresetCompetitionMenu
 0001:00012649       SeasonMenu
 0001:000126DB       CareerMenu
 0001:00012737       StartContest
 0001:00012AF0       SaveCareerSelected
 0001:00012CC9       LoadOldCompetitionMenu
 0001:00012E41       EditCustomTeamMenu
 0001:00012E5D       EditTacticsMenu
 0001:00012E67       HighlightsMenu
 0001:00012E7B       OptionsMenu
 0001:00012E8F       SaveDiskFilingMenu
 0001:00012EA4       FriendlyMenuInit
 0001:00012EB6       FriendlyMenuFinish
 0001:00013013       DrawNumbersOfSubstitutes
 0001:0001308D       DisableEntries
 0001:00013125       FriendlyOK
 0001:0001313D       jmpSetExitMenuFlag
 0001:00013142       ChooseTeamsMenu
 0001:0001319E       PitchTypeOrSeasonProc
 0001:000131F4       SetFriendlyPitchOrSeason
 0001:0001325D       FriendlyPitchTypeProc
 0001:000132A5       MinSubstitutes
 0001:000132E1       MaxSubstitutes
 0001:00013363       SetSelect2TeamsText
 0001:000133C5       RandomlySwapTeams
 0001:00013440       Friendly
 0001:0001344A       ShowFriendlyMenu
 0001:000134A2       ContestInProgress
 0001:000136B4       SearchTeamInTmdFile
 0001:0001370D       FindTeamInCache
 0001:000137FE       InitTeams
 0001:0001386D       TeamInit
 0001:000138EE       out2
 0001:000138EF       PlayFriendly
 0001:0001390E       InitAndPlayGame
 0001:00013BAB       SetupPlayers
 0001:00014093       GetPlayerAtIndex
 0001:00014200       GetTeamPointer
 0001:00014345       GetPlayer
 0001:000144E5       GetSurname
 0001:00014C3B       GetPlayerRandomNum
 0001:00014CD4       CheckContinueAbortPrompt
 0001:00014D67       CareerInitVars
 0001:000160A8       nullsub_13
 0001:00016787       InitDIYCup
 0001:00017211       VerifyTeamLoaded
 0001:00017FB8       SaveDIYTournament
 0001:000181F9       RestoreDIYLeague
 0001:00018373       SaveDIYLeague
 0001:0001D998       SaveSelectedTeams
 0001:0001D9FF       RestoreSelectedTeams
 0001:0001DA67       SaveRand2State
 0001:0001DACD       RestoreRand2State
 0001:0001DB27       GetBankBalance
 0001:0001DB62       Int2Pounds
 0001:0001DB8A       Int2PoundsSigned
 0001:0001DBB9       WriteAccountBalance
 0001:0001DC10       nullsub_12
 0001:0001DC11       Int2StrWithCommas
 0001:0001DD7E       CallInt2AsciiSaveD0
 0001:0001DD90       PlayGame
 0001:0001F43E       InitIngameTeamStructure
 0001:0001F799       SetPlayerNameAndFace
 0001:0001F899       InitIngamePlayer
 0001:000201E1       SetTeamSecondaryColors
 0001:00020288       ConvertColorForSprite
 0001:00020D52       ChangeTeamTactics
 0001:0002127A       AdjustPlayerSkills
 0001:000216E5       GetPlayerPricePercentageChange
 0001:00021E80       LoadSomeEuroCup
 0001:000229C3       LoadTeamFile
 0001:00022D5A       SetLoadedTeamsGlobalNumbers
 0001:00022D87       SetLeagueNumbers
 0001:00022E12       FatalError
 0001:00023183       LoadCareerFile
 0001:000231E3       SaveCareerFile
 0001:00023261       j_LoadCareerFile
 0001:00023266       j_SaveCareerFile
 0001:0002326B       LoadPresetFile
 0001:0002333F       LoadDIYFile
 0001:0002339A       SaveDIYFile
 0001:00023413       LoadHilFile
 0001:00023443       DoSaveHighlights
 0001:0002349A       SetTeamGlobalNumbers
 0001:00023F84       StatsHighestScorerList
 0001:00023FA0       CompetitionInfo
 0001:00023FC7       StatsViewSquads
 0001:00023FEF       StatsExit
 0001:00023FFB       NullMenuInit
 0001:00024008       CareerMenuInit
 0001:0002400D       CareerMenuFinish
 0001:00024063       SetPlayerCoachFieldColor
 0001:000240F9       ChooseTeamMenu
 0001:00024120       LoadLiverpool
 0001:00024147       ChangeSex
 0001:00024159       CheckSex
 0001:00024187       SetName
 0001:000241A5       SetSurname
 0001:000241C3       CoachOrPlayerCoach
 0001:000241D5       j_SetExitMenuFlag2
 0001:000241DA       ContestMenuInit
 0001:0002422C       ContestMenuFinish
 0001:0002466D       PlayMatchMenu
 0001:000247F5       NextMatch
 0001:00024934       ViewCompetitionsMenu
 0001:00024957       SquadMenu
 0001:00024A3B       ClubBussinesMenu
 0001:00024A40       JobOffersMenu
 0001:00024AC2       SeasonFinished
 0001:00024B33       TransfersMenu
 0001:00024B7E       ViewWorldMenu
 0001:00024BAF       jmp_SetExitMenuFlag
 0001:00024BB4       ContestMenuScrollUp
 0001:00024C76       ContestMenuScrollDown
 0001:00024F0C       CheckClubBusiness
 0001:00024F71       CheckJobOffers
 0001:000250E7       ContestSetButtons
 0001:000253CD       SeasonLowerButtons
 0001:00025481       CheckTransfers
 0001:00025775       PrintNameAndSeason
 0001:00025A25       nullsub_15
 0001:00025A26       SetNationalSelectorButtons
 0001:00025DC6       CareerGameListCommon
 0001:00026DF4       CareerOverInit
 0001:00026E41       CareerOverFinish
 0001:0002726D       CareerOverUpdateJobOffersEntry
 0001:000273C0       ViewCompetitionsMenuRetired
 0001:000273CF       JobOffersMenuRetired
 0001:0002749F       ContinueCareer
 0001:000274D5       SaveCareer
 0001:0002754F       ExitCareerMenu
 0001:0002758D       SelectTeamToManage
 0001:00027C2D       TopGoalScorersMenu
 0001:00027C32       ManagementRecordMenu
 0001:00027C51       jmp_SetExitMenuFlag_2
 0001:00027C56       ShowRetirementMessage
 0001:00027C84       ManagementRecordInit
 0001:00027D8C       jmp_SetExitMenuFlag_3
 0001:00027D91       ManagementArrowUpSelect
 0001:00027DAA       ManagementArrowDownSelect
 0001:00027DD3       FillManagementRecordInfo
 0001:00028F52       SetTrophySprites
 0001:000290BA       SetTrophySprite
 0001:00029169       SetNationalityField
 0001:00029262       ChangeNationality
 0001:0002930B       GetCurrentSeasonPointer
 0001:00029915       cseg_39915
 0001:00029D98       GetNumberOfSubstitutes
 0001:0002A954       IsPlayerInjured
 0001:0002B899       FindTeamInDIY
 0001:0002BDA8       GetMoreExpensiveTeamsCountWrapper
 0001:0002BE6E       EndlessLoop
 0001:0002BE71       CareerPlayMatch
 0001:0002C427       GetAveragePlayerPriceInSelectedTeams
 0001:0002E011       IsTeamNational
 0001:0002E0A2       ShowSeasonOpinion
 0001:0002E7E4       ChooseTeamsFriendlyInit
 0001:0002EC04       SetTeamEntriesStringsAndColors
 0001:0002EE21       ChangeTeams
 0001:0002EE59       AbortChooseTeamsFriendly
 0001:0002EE91       ChooseTeamsFriendlyOnSelect76
 0001:0002EEC9       ChooseTeamsFriendlyCommon
 0001:0002F03A       SetChooseChangeTeamsEntries
 0001:0002F22F       nullsub_6
 0001:0002F230       ViewSelTeamsSetColumns
 0001:0002F526       DeselectAllTeams
 0001:0002F588       ShowPlayMatchMenu
 0001:0002F62B       PlayMatchInit
 0001:0002F71F       PlayMatchAfterDraw
 0001:0002F8DF       SetCurrentSelectedPlayerIndexPointer
 0001:0002F934       OnSwapPlayer
 0001:0002FCA5       PlayMatchMenuSwapPlayers
 0001:00030000       out_0
 0001:00030012       PlayMatchChangeTactics
 0001:000300B6       ExitPlayMatch
 0001:00030109       PlayMatchSelected
 0001:00030177       EditTacticsInPlayMatchMenu
 0001:0003018B       ViewOpponentsSelect
 0001:0003028E       PlayMatchOnSelect11
 0001:000302C3       PlayMatchOnSelect30
 0001:000302F3       PlayMatch30AfterDraw
 0001:00030333       UpdateTeamCheckmark
 0001:000304EF       SetGameStartButtonText
 0001:00030612       ShowOrHidePlayMatchButton
 0001:00030A70       SetUpTacticsButtons
 0001:00030B93       SetPlayerSurnamesOnSidePitch
 0001:00030E04       SetVariableButtons
 0001:000317CC       DrawPlayerEntries
 0001:0003229B       RedrawPlayerNames
 0001:00032325       UpdateLittleCheckmark
 0001:00032430       SavePositionsAndUpdateLittleCheckmark
 0001:000324A5       UpdateCheckMarkSprite
 0001:0003257B       UseMatchTeamSelect
 0001:000325FF       TogglePlayerCoach
 0001:00032700       ShowUseMatchTeamIfTraining
 0001:00032777       ShowErrorMenu
 0001:00032791       DoContinueAbortMenu
 0001:000327E4       continueMenu
 0001:00032828       ContinueInit
 0001:000328B2       Continue
 0001:000328B8       ContinueAbortInit
 0001:00032A1A       ContinueSelected
 0001:00032A29       AbortSelected
 0001:00032A38       DesignDIYTournamentInit
 0001:00032A4A       DesignDIYTournamentFinish
 0001:00032E7E       DesignDIYTournamentOK
 0001:00032E97       DesignDIYTournamentOnSelect91
 0001:00032E9D       DesignDIYTournamentOnSelect2
 0001:00032EBA       DesignDIYTournamentOnSelect89
 0001:00033014       DesignDIYTournamentOnSelect3
 0001:0003306B       DesignDIYTournamentOnSelect4
 0001:0003308C       DesignDIYTournamentOnSelect5
 0001:00033107       DesignDIYTournamentOnSelect7
 0001:00033180       DesignDIYTournamentOnSelect9
 0001:000331A8       DesignDIYTournamentOnSelect11
 0001:000331E4       DesignDIYTournamentOnSelect13
 0001:00033266       DesignDIYTournamentOnSelect21
 0001:00033284       DesignDIYTournamentOnSelect23
 0001:00033309       DesignDIYTournamentOnSelect24
 0001:00033346       DesignDIYTournamentOnSelect25
 0001:00033383       DesignDIYTournamentOnSelect26
 0001:000333A1       DesignDIYTournamentOnSelect28
 0001:000334D4       DesignDIYTournamentOnDraw
 0001:000344A2       DesignDIYTournamentOnSelect20
 0001:0003493B       aStar
 0001:0003495A       diyPitchTypeStringTable
 0001:00034C1A       ShowDesignDIYTournamentMenu
 0001:00034C46       ShowTournamentInfo
 0001:00034CE0       DesignDIYCupInit
 0001:00034CF2       DesignDIYCupFinish
 0001:000350CE       DesignDIYCupOK
 0001:000350E6       jmp_SetExitMenuFlag_4
 0001:000350EB       DesignDIYCupOnSelect2
 0001:00035107       DesignDIYCupOnSelect48
 0001:0003528D       DesignDIYCupOnSelect3
 0001:000352E4       DesignDIYCupOnSelect4
 0001:00035304       DesignDIYCupOnSelect5
 0001:0003537C       DesignDIYCupOnSelect7
 0001:000353F4       DesignDIYCupOnSelect9
 0001:0003542C       DesignDIYCupOnSelect11
 0001:0003550F       DesignDIYCupOnSelect13
 0001:0003554B       DesignDIYCupOnSelect15
 0001:000355CD       DesignDIYCupOnSelect20
 0001:00035633       DesignDIYCupOnSelect21
 0001:0003567E       DesignDIYCupOnSelect22
 0001:00035791       DesignDIYCupOnDraw
 0001:00035B03       ShowDesignDIYCupMenu
 0001:00035B2F       ShowCupInfo
 0001:00035BBE       DIYCupInit
 0001:00035CAC       DIYCupFinish
 0001:00035CFB       jmp_SetExitMenuFlag_5
 0001:00036012       DIYCupOnSelect10
 0001:0003609F       DIYCupOnSelect9
 0001:000360A4       DIYCupOnSelect16
 0001:000360C2       DIYCupOnSelect17
 0001:00036119       DIYCupOnSelect1
 0001:000373B7       DIYCupOnSelect3
 0001:000373D5       DIYCupOnSelect4
 0001:000373F0       DIYCupOnSelect5
 0001:0003740B       DIYCupOnSelect6
 0001:00037426       DIYCupOnSelect7
 0001:00037441       DIYCupOnSelect8
 0001:00037798       DesignDIYLeagueInit
 0001:000377AA       DesignDIYLeagueFinish
 0001:00037B60       DIYLeagueSetVariousFields
 0001:00037CA0       DIYLeagueOKSelected
 0001:00037D86       DesignDIYLeagueOK
 0001:00037D9E       jmp_SetExitMenuFlag_6
 0001:00037DA3       DesignDIYLeagueSetName
 0001:00037DBF       DesignDIYLeagueChooseTeams
 0001:00037E6C       DIYSetMonthsOrPitchTypeEntries
 0001:00037F44       DIYLeagueChangePitchTypeOrSeason
 0001:00037F9B       DesignDIYLeagueChangePitchType
 0001:00037FBB       DesignDIYLeagueChangeStartMonth
 0001:00038038       DesignDIYLeagueChangeEndMonth
 0001:000380B5       DesignDIYLeagueChangeNumberOfTeams
 0001:000380F1       DesignDIYLeagueChangePlayEachTeam
 0001:00038116       SetPlayEachTeamString
 0001:00038140       DesignDIYLeagueChangeNumPointsForWin
 0001:0003815D       ConvertMinMaxSubstitutesNumbers
 0001:000381D2       DesignDIYLeagueChangeMinSubstitutes
 0001:0003820E       DesignDIYLeagueChangeMaxSubstitutes
 0001:00038290       SetNumberOfTeamsToSelect
 0001:000382F5       ShowDesignDIYLeagueMenu
 0001:00038320       ShowLeagueInfo
 0001:000383B3       DIYLeagueTournamentInit
 0001:00038475       DIYLeagueTournamentFinish
 0001:00038C0A       jmp_SetExitMenuFlag_7
 0001:00038C0F       DIYLeagueTournamentStats
 0001:00038C14       DIYLeagueTournamentExit
 0001:00038D25       DIYLeagueTournamentMatch
 0001:00038D44       DIYLeagueTournamentOnSelect4
 0001:00038D5F       DIYLeagueTournamentResult
 0001:00038D7A       DIYLeagueTournamentViewMatch
 0001:00038D95       DIYLeagueTournamentViewHighlights
 0001:00038DB0       DIYLeagueTournamentViewResult
 0001:00038F76       DIYSetTeamNamesAndResults
 0001:00039099       DIYLeagueTournamentNextMatch
 0001:000396FB       DIYLeagueTournament16BeforeDraw
 0001:00039E9A       DIYLeagueTournamentScrollUp
 0001:00039EB8       DIYLeagueTournamentScrollDown
 0001:00039EF3       nullsub_14
 0001:00039FBC       GoGetTeamsForPlay
 0001:0003A092       ChooseTeamsInit
 0001:0003A3C3       ClubTeams
 0001:0003A3FF       NationalTeams
 0001:0003A43B       OriginalCustomTeams
 0001:0003A477       EditedCustomTeams
 0001:0003A4B3       ExitChooseTeams
 0001:0003A4EF       SelectTeamsInit
 0001:0003A54F       SelectTeamsFinish
 0001:0003A993       SetLeagueNames
 0001:0003AA59       SetCountryNames
 0001:0003AC31       ViewSelectedTeams
 0001:0003AC64       ChooseTeamsPlayGame
 0001:0003ACA9       ExitSelectTeams
 0001:0003AD26       SelectTeamsCommon
 0001:0003AE08       SelectLeaguesCommon
 0001:0003AEB1       SetTeamsCoordinates
 0001:0003B143       CheckNumberOfTeams
 0001:0003B3C0       SelectTeamsFinalMenu
 0001:0003C3CD       GetCountryName
 0001:0003C475       SetSelectedTeamsStackTop
 0001:0003C4A6       PushLastSelectedTeam
 0001:0003C4DC       GetSelectedTeamsStackTop
 0001:0003C511       MarkSelectedTeamsStackLocation
 0001:0003C55B       IsContestContinentalCup
 0001:0003C608       ChooseCompetitionMenu
 0001:0003C758       ChooseTeamsDialog
 0001:0003C928       ChooseTeamsFriendlyInitFinish
 0001:0003D0C2       ViewSelected
 0001:0003D0F5       ExitChooseTeams2
 0001:0003D14B       ChooseTeamsPlayMatchSelected
 0001:0003D17E       ChooseTeamsFriendlyCommon2
 0001:0003D381       ChooseTeamsSetHeader
 0001:0003D4AB       Bureaucracy
 0001:0003D4DB       CheckNumTeamsAllowed
 0001:0003D9E1       AddTeamToBuffer
 0001:0003DA6B       DeselectTeam
 0001:0003DAD6       FindTeam
 0001:0003DB34       SelectDiyLeagueMenu
 0001:0003DB43       SelectDiyCupMenu
 0001:0003DB52       SelectDiyTournamentMenu
 0001:0003DB61       SelectDiyExitMenu
 0001:0003DB70       EditTactics
 0001:0003DCAD       ShowStandardChooseTacticsMenu
 0001:0003DCEF       ChooseTacticsInit
 0001:0003DDE5       User_A_Tactics
 0001:0003DDF3       User_B_Tactics
 0001:0003DE01       User_C_Tactics
 0001:0003DE0F       User_D_Tactics
 0001:0003DE1D       User_E_Tactics
 0001:0003DE2B       User_F_Tactics
 0001:0003DE39       ExitChooseTacticsMenu
 0001:0003DE47       EditTacticsInit
 0001:0003DED3       EditTacticsAfterDraw
 0001:0003DEE8       EditTacticsCommon
 0001:0003E236       out3
 0001:0003E237       EditTacticsPlayerNamesCommon
 0001:0003E57D       SelectCopyTactics
 0001:0003E58C       UndoTactics
 0001:0003E5DC       AbortEditTactics
 0001:0003E62A       SaveAndExitEditTactics
 0001:0003E7E3       ImportTactics
 0001:0003E8C5       FlipOnOff
 0001:0003E8DC       EnableOrDisablePlayerFacesItems
 0001:0003E936       CopyCurrentTacticName
 0001:0003E9B4       EditTacicsMovePlayersOrBall
 0001:0003EA31       CopyTactics
 0001:0003EBD6       EditTactics2AfterDraw
 0001:0003EBDB       EditTacticsOnSelect28
 0001:0003EC08       EditTacticsAfterDrawCommon
 0001:0003EC6D       EditTactics28AfterDraw
 0001:0003ED40       EditTacticsAfterDrawPlayerNames
 0001:0003F868       DrawPlayerNamesAndFaces
 0001:0003F932       EditTacticsMenuSavePlayerPositions
 0001:0003FAEA       SetBigCheckSprite
 0001:0003FBB5       ApplyCurrentEditedTactics
 0001:0003FD3B       SaveCurrentTactics
 0001:0003FD7E       RestoreTactics
 0001:0003FE8B       GetPlayerQuadrant
 0001:0003FF7D       GetBallXYPositionFromQuadrant
 0001:00040008       GetBallQuadrant
 0001:00040460       DrawEditTacticsPitchAndPlayers
 0001:000408E5       EditTacticsReadControls
 0001:00040BF5       HandlePlayersOrBallInEditTactics
 0001:00041052       EditTacticsDrawCursor
 0001:00041102       GetPlayerXYPositionFromQuadrant
 0001:000411CF       DrawLittlePlayersAndBall
 0001:00041962       SortPlayerAreasByY
 0001:00041A38       player_areas
 0001:00041A7E       DrawPlayerDirections
 0001:00041C52       CalculateDeltaXAndY
 0001:00041F5B       WriteTacticsFile
 0001:00041F76       nullsub_18
 0001:00041F77       ImportTacticsSelectTactics
 0001:00041FC4       ExitImportTactics
 0001:00041FD2       LoadTactics
 0001:0004208B       ReadTacticsFile
 0001:000420FC       InitLittlePlayerSprites
 0001:000423A5       ConvertPlayerDressColor
 0001:000423DB       CopyCurrentTactics
 0001:00042448       GetPlayerByOrdinal
 0001:00042528       SetBenchPlayersNumbers
 0001:00042E72       CheckIsTeamNational
 0001:000434A9       GetTeamLeague
 0001:00043701       TransferMarketInit
 0001:0004372F       TransferMarketFinish
 0001:00043744       TransferMenuSetBankState
 0001:00043772       BuyPlayerMenu
 0001:000437B7       PutPlayerOnMarketMenu
 0001:0004391C       ViewOffersMenu
 0001:0004395A       GiveFreeTransfer
 0001:000439C2       jmp_SetExitMenuFlag_8
 0001:000439C7       TakeOffMarketMenu
 0001:00043A26       TransferMarketCommon
 0001:00043AE5       CheckNumPlayersOnTransferMarket
 0001:00043B4B       CheckIfPlayerSelected
 0001:00043BC0       EnableDisableOffers
 0001:00043C98       TransferMarketAfterDrawCommon
 0001:00043E00       CheckForTransferOffers
 0001:00043F39       ShowSquad
 0001:000440E7       RemovePlayerFromTeam
 0001:00044A20       BuyOtherPlayersInit
 0001:00044A3B       BuyOtherPlayersFinish
 0001:00044AA5       j_SetExitMenuFlag_10
 0001:00044AAA       BuyOtherPlayersCommon
 0001:00044B29       BuyOtherPlayersAfterDrawCommon
 0001:00044CEF       BuyPlayerInit
 0001:00044D1E       ViewDomesticPlayerMarket
 0001:00044D42       ViewForeignPlayerMarket
 0001:00044D66       BuyOtherDomesticPlayer
 0001:00044DF2       BuyOtherForeignPlayer
 0001:00044E74       BuyPlayerViewSquad
 0001:00044F12       BuyPlayerExit
 0001:000451C0       nullsub_19
 0001:000451C1       OffersCommon
 0001:000454B5       j_SetExitMenuFlag_11
 0001:000454BA       OffersAfterDrawCommon
 0001:00046543       AddCareerPoolPlayer
 0001:00046CCA       ThirdPartyOfferMenuInit
 0001:000471A8       ThirdPartyOfferViewSquad
 0001:00047246       AcceptOffer
 0001:00047254       RejectOffer
 0001:00047262       AskForMore
 0001:00047270       ConsiderOffer
 0001:0004727E       ThirdPartyOfferMenuExit
 0001:0004728C       ThirdPartyOfferMenuAfterDrawCommon
 0001:000473C5       ViewSquadInit
 0001:00047539       ViewSquadExitContinue
 0001:00047547       ViewSquadOnSelect21
 0001:000475A0       ViewSquad21AfterDraw
 0001:000475E0       ViewSquadCommon
 0001:00047648       ViewSquadAfterDrawCommon
 0001:00047806       player_offers_menu
 0001:00047A7C       PlayerOffersInit
 0001:00047D33       PlayerOffersOnSelect8
 0001:00047DD6       PlayerOffersOnSelect10
 0001:00047EE4       PlayerOffersOnSelect11
 0001:00048006       PlayerOffersOnSelect12
 0001:00048399       PlayerOffersOnSelect13
 0001:0004839E       PlayerOffersAfterDrawCommon
 0001:000491A6       nullsub_20
 0001:00049E2C       jmp_SetExitMenuFlag_9
 0001:0004C35C       IsPlayerOkForNationalSelector
 0001:0004C3BE       not_ok_for_national_selector
 0001:0004C43F       GetNationalityAndTeamFile
 0001:0004C4CC       GetNationalTeamNumber
 0001:0004C52B       GetNationalityRecordPtr
 0001:0004CDA5       GetPlayerPositionFromCurrent
 0001:0004CEF8       ShowSelectRepresentationMenu
 0001:0004CF14       SelectRepresentationInit
 0001:0004CF41       SelectRepresentationFinish
 0001:0004D458       RepresentationAddPlayer
 0001:0004D51E       RepresentationRemovePlayers
 0001:0004D571       SelectRepresentationExit
 0001:0004D57F       SelectRepresentationAbort
 0001:0004D5AA       SelectRepresentationOnSelect25
 0001:0004D603       SelectRepresentation25AfterDraw
 0001:0004D643       SelectRepresentationCommon
 0001:0004D749       SelectRepresentationAfterDrawCommon
 0001:0004D9C9       nullsub_21
 0001:0004D9F4       GetPlayerPosition
 0001:0004DA90       CalculateStartingBalance
 0001:0004DE3F       GetAveragePlayerPrice
 0001:0004E590       ShowChairmanMessage
 0001:0004E5A4       ChairmanMemosInit
 0001:0004E608       ChairmanMemosFinish
 0001:0004E752       ChairmanMemosContinue
 0001:0004E760       ShowClubBussinesMenu
 0001:0004E778       ClubBusinessInit
 0001:0004F381       j_SetExitMenuFlag13
 0001:0004F386       GotJobOfferInit
 0001:0004F407       GotJobOfferFinish
 0001:0004FF29       AcceptJobOffer
 0001:0004FFA2       j_SetExitMenuFlag_14
 0001:0004FFA7       RejectJobOffer
 0001:0004FFD2       ViewFutureTeam
 0001:00050031       ViewFutureTeamLeague
 0001:000500CE       ConsiderJobOffer
 0001:00050297       IsOldJobOffer
 0001:000502F3       GetJobOfferPtr
 0001:0005032B       AddJobOffer
 0001:000503DF       RemoveJobOffer
 0001:00050482       IsNewJobOffer
 0001:000504DE       GetNewJobOfferPtr
 0001:00050516       JobOffersInit
 0001:00050526       JobOffersFinish
 0001:0005052C       JobOffersCommon
 0001:00050654       JobOffersExit
 0001:00050BA3       JobOffersAfterDrawCommon
 0001:00050EC5       PlayChairmanScene
 0001:00051048       EditCustomTeam
 0001:00051167       EditTeamsCallback
 0001:00051197       EditTeamsInit
 0001:000511E6       EditTeamsFinish
 0001:000511F1       ImportTeamsMenu
 0001:00051443       EditTeamsUndo
 0001:0005149C       EditTeamsOK
 0001:0005154A       EditTeamsChangeShirtsPrimary
 0001:000516A7       EditTeamsChangeShirtsSecondary
 0001:00051804       EditTeamsChangeShortsPrimary
 0001:000518D7       EditTeamsChangeShortsSecondary
 0001:000519AA       EditTeamsChangeSocksPrimary
 0001:00051A78       EditTeamsChangeSocksSecondary
 0001:00051B46       EditTeamsSelectPrimaryShirtType
 0001:00051C17       EditTeamsSelectSecondaryShirtType
 0001:00051CE8       EditTeamsChangePlayerName
 0001:00051D04       EditTeamsSelectTeamName
 0001:00051D20       EditTeamsSelectCoachName
 0001:00051D3C       EditTeamsChangePlayerFace
 0001:00051DC3       InitEditTeamsMenu
 0001:00051F5C       EditTeamsPlayersBeforeDraw
 0001:00052148       PrimaryKitColorConversion
 0001:0005232C       SecondaryKitColorConversion
 0001:00052513       MarkFirstKitShirt
 0001:00052585       MarkSecondKitShirt
 0001:000525F7       EditTeamsGetPlayerPointer
 0001:0005263F       nullsub_22
 0001:00052640       EuropeanChampionshipInit
 0001:0005269B       EuropeanChampionshipFinish
 0001:0005269C       ExitEuropeanChampionshipMenu
 0001:000526AB       ShowStadiumInit
 0001:00052BA6       StadiumBeforeDrawLeftTeam
 0001:00052BCA       StadiumBeforeDrawRightTeam
 0001:00052D3C       FillSkinColorConversionTable
 0001:00052DB6       VersusInit
 0001:00053018       DrawAnimatedPatterns
 0001:0005368C       SwapTwoRandomIndicesFromAnimPatternsTable
 0001:0005373B       ResetAnimatedPatternsForBothTeams
 0001:00053783       ResetAnimatedPatterns
 0001:0005386B       out_EGA
 0001:0005386C       InitAnimatedPatterns
 0001:0005401A       CheckIfTeamIsChanged
 0001:000540B9       PlayTrainingGame
 0001:00054B2B       AddTrialPlayer
 0001:000550BA       CheckPlayersLeavingComing
 0001:000551B7       PlayerJoinedClubOnTrial
 0001:00055284       TrialPlayerLeftClubMessage
 0001:00055351       ReservePlayerLeftClubMessage
 0001:0005541E       DrawPatternFromIndex
 0001:00057440       SetPitchTypeAndNumber
 0001:000575F8       InitCurrentGoal
 0001:00057690       SetCameraCoordinates
 0001:00057780       MoveView
 0001:00057863       ScrollToCurrent
 0001:000578B5       GoalScored
 0001:000581E4       AllowStatistics
 0001:000581FE       StatisticsOff
 0001:00058211       UpdateStatistics
 0001:000584E2       DrawStatistics
 0001:00058F14       WriteStatsNumber
 0001:00058FB7       WriteStatsPercent
 0001:00059072       DrawGrid
 0001:00059141       PrintCenteredStringInColor
 0001:00059194       PrintStringInColor
 0001:00059389       BenchCheckControls
 0001:00059B0D       out4
 0001:00059B18       leave_subs_menu
 0001:00059D92       TrainingSwapTeams
 0001:00059E13       IsThisPlayerOkToSelect
 0001:00059F28       FirePressedInSubsMenu
 0001:0005A052       ShowFormationMenu
 0001:0005A07F       SubsBenchOff
 0001:0005A0A4       SubstitutePlayerIfFiring
 0001:0005A511       MarkPlayersMenuHandler
 0001:0005A996       ChangeFormationIfFiring
 0001:0005AB8A       UpdateSubstitutePlayerIndices
 0001:0005ACC7       GetPlayerToBeSubstitutedPosition
 0001:0005ACE5       IsOkToSubstitute
 0001:0005AD98       MoveFormationMenuSelectedEntry
 0001:0005AE46       EnqueuePlayerSubstitution
 0001:0005B06F       SwapNameLengths
 0001:0005B13E       GetIngamePlayerOffset
 0001:0005B213       DrawBenchAndSubsMenu
 0001:0005B41A       DrawOpponentsBench
 0001:0005B49A       DrawBenchPlayersAndCoach
 0001:0005B89E       DrawSubstitutesMenu
 0001:0005BE60       out5
 0001:0005BE61       DrawSubstitutesMenuEntry
 0001:0005C7F3       DrawFormationMenu
 0001:0005CC79       DrawFormationMenuEntry
 0001:0005CF42       SaveCoordinatesForHighlights
 0001:0005D0AC       IncrementHilBufferPointer
 0001:0005D0C4       FindStartingDword
 0001:0005D15D       RestoreCameraPosition
 0001:0005D2CC       RenderReplayFrame
 0001:0005D9ED       ValidateHilPointerAdd
 0001:0005DA05       ValidateHilPointerSub
 0001:0005DA1D       InitHighlightsPointers
 0001:0005DA6C       RestoreGoalPointers
 0001:0005DAA7       FadeAndSaveReplay
 0001:0005DAB7       SaveHighlight
 0001:0005DC12       SetHilFileHeader
 0001:0005DD45       CopyTeamsAndHeader
 0001:0005DE4C       InitGame
 0001:0005DEDD       InitGameNoTeams
 0001:0005E6BF       ConvertColors
 0001:0005F2C3       CountFaces
 0001:0005F330       ConvertColorTable
 0001:0005F3AA       SetGoalieTable
 0001:0005F4A4       InitializeSomeTeamTables
 0001:0005F6E3       DrawControlledPlayerNumbers
 0001:0005F91C       ClearSaveFlagForGoalSprites
 0001:0005F92F       InitGoalSprites
 0001:0005F96A       nullsub_27
 0001:0005F96B       ResetTime
 0001:0005F9B0       UpdateTime
 0001:0006002E       ResetResultSprites
 0001:0006024C       ShowResult
 0001:000611D0       BookPlayer
 0001:000613FE       LoadSpritesAndFixOffsets
 0001:00061728       MarkPlayer
 0001:00061830       SetCurrentPlayerName
 0001:00061B17       CopyAdvertisementsData
 0001:00061C51       InitAdvertisements
 0001:00061C72       SetAdvertisementsVisible
 0001:00061CAD       SetAdvertisementsInvisible
 0001:00061CE8       ManageAdvertisements
 0001:000620A7       SetPlayersHalfPlayed
 0001:00062112       SetPlayerHalfPlayed
 0001:00062138       InitDisplaySprites
 0001:000621B1       SortSprites
 0001:00062270       DrawSprites
 0001:00062548       InitTeamsData
 0001:00062944       StartPenalties
 0001:00062ABB       UpdateAndApplyTeamControls
 0001:00062E8B       UpdateControlledPlayer
 0001:0006319A       UpdatePlayerBeingPassedTo
 0001:000635DD       UpdateCameraBreakMode
 0001:00063F58       ReadPitchFile
 0001:000640E7       FixupAndColorPitchFile
 0001:00064332       ResetGoalAttempt
 0001:00064385       MoveCamera
 0001:00064AFF       ActivateReferee
 0001:00064C23       MovePlayers
 0001:00064C5E       SetNextPlayerFrame
 0001:00064E8F       MovePlayer
 0001:00065189       SetCornerFlagSprite
 0001:0006525A       SpinBig_S_Sprite
 0001:000658C0       ShowRestOfPics
 0001:000658C7       ShowLoader1AndOne256
 0001:000658CE       ShowPictures
 0001:000659DC       StartingMatch
 0001:00065A81       SetCameraMovingToShowerState
 0001:00065BD4       PlayersLeavingPitch
 0001:00065CE3       GameOver
 0001:00065DB9       StartFirstExtraTime
 0001:00065EAB       EndFirstExtraTime
 0001:00065F79       PrepareForInitialKick
 0001:000660EF       StopAllPlayers
 0001:000661B9       StopPlayers
 0001:00066231       SetBallPosition
 0001:000662B9       InitPlayersBeforeEnteringPitch
 0001:000664A2       SetAnimationTable
 0001:00066578       InitRefereeAnimationTable
 0001:000665F3       nullsub_8
 0001:000665F4       RemoveReferee
 0001:0006666D       NextPenalty
 0001:000668AF       GoalkeeperClaimedTheBall
 0001:000669F2       UpdatePlayerWithBall
 0001:00066AB8       ResetLeftAndRightSpinTimers
 0001:00066ACB       ApplyBallAfterTouch
 0001:000671B7       SetPlayerDownTimeAfterTackle
 0001:00067225       UpdatePlayerSpeed
 0001:000675CF       UpdateTeamOfs24Table
 0001:00067632       GetPlayerPointerFromShirtNumber
 0001:00067694       UpdateBallVariables
 0001:00068197       CalculateBallNextXYPositions
 0001:0006834F       GoalkeeperJumping
 0001:00068566       PlayerBeginTackling
 0001:000686E0       PlayerTacklingBall
 0001:00068CE0       GoalkeeperCatchedBall
 0001:00068F83       PlayerTacklingTestFoul
 0001:00069476       nullsub_28
 0001:00069477       BookPlayerAfterTackle
 0001:000698B2       TestFoulForPenaltyAndFreeKick
 0001:00069D0A       PlayerTackled
 0001:0006A051       UpdateBallWithControllingGoalkeeper
 0001:0006A14A       CalculateIfPlayerWinsBall
 0001:0006A5BC       DoPass
 0001:0006AB50       PlayerKickingBall
 0001:0006AE4B       GetClosestPlayerWithDirection
 0001:0006AF63       GetBallDestCoordinatesTable
 0001:0006B023       PlayerHeading
 0001:0006B532       UpdateControllingPlayer
 0001:0006B62F       SetThrowInPlayerCoordinates
 0001:0006B94C       SetPlayerWithNoBallDestination
 0001:0006BD15       UpdateBall
 0001:0006D07D       DoGoalKeeperSprites
 0001:0006D2C5       CheckIfBallOutOfPlay
 0001:0006DBAD       CalculateNextBallPosition
 0001:0006DDB7       DrawReferee
 0001:0006E2E5       SetRefereeToLeavingState
 0001:0006E36B       SendPlayerAway
 0001:0006E423       EndFirstHalf
 0001:0006E4B5       EndOfGame
 0001:0006E547       ResetBothTeamsPlayerPassingKicking
 0001:0006E5A5       ResetPlayerPassingKicking
 0001:0006E6B8       PlayerDoingStrongHeader
 0001:0006E92F       DoStaticHeader
 0001:0006EA0C       UpdatePlayersAndBall
 0001:00073E45       MakeSpritesFromPlayerNames
 0001:00073ED7       MakePlayerNameSprite
 0001:0007407F       CopyPlayerNameLengths
 0001:00074114       DoAI
 0001:00075777       AISetDirectionAllowed
 0001:0007582F       return
 0001:00075831       AIHeader
 0001:000759E4       FindClosestPlayerToBallFacing
 0001:00075B28       AIKick
 0001:00075C50       GetFilenameAndExtension
 0001:00075E5B       FindFiles
 0001:00075E84       FindFilesExtensionPresent
 0001:00075F7B       FindFirstFile
 0001:00075F88       FindNextFile
 0001:00075F8D       SetDTA
 0001:00075F97       SelectFilesInit
 0001:00076126       SelectFilesFinish
 0001:000764D8       SelFilesBeforeDrawCommon
 0001:00076671       SaveHighlights
 0001:00076680       AbortSaveHighlights
 0001:0007668C       SelectFilesOnSelect48
 0001:00076796       SelFilesOnSelectCommon
 0001:000769D0       CopyFilenameAndExtension
 0001:00076ADF       SelectFileToSaveDialog
 0001:00076CF8       HighlightsMenuInit
 0001:00076CFA       HighlightsMenuFinish
 0001:00076D00       HighlightsMenuCommon
 0001:00076ECF       jmpShowHighlights
 0001:00076ED4       LoadHighlightsMenu
 0001:00076F4D       SaveHighlightsMenu
 0001:00076FAE       ExitHighlights
 0001:00076FB3       ShowHighlights
 0001:0007730B       ViewHighlightsWrapper
 0001:00077C66       CloseAnimationFile
 0001:00077C74       AnimationFileError
 0001:00077C88       FlipTitle
 0001:00077C9A       JoyKeyOrCtrlPressed
 0001:00079B12       RestoreDIYTournament
 0001:0007C796       InitCareerTables
 0001:0007CC92       InitializeNewSeason
 0001:0007DE76       LoadPoolplyrDat
 0001:0007FE23       GetPlayerPrice
 0001:000802B1       CountNearnessFactor
 0001:00080E67       GetTeamValueBase
 0001:00080EBC       ShowLeavingMessage
 0001:00080EEA       ShowGreetingMessage
 0001:00080F40       ShowLastSeasonMessage
 0001:00080F96       ShowWishYouSuccessMessage
 0001:00080FC4       ShowEnjoyLastSeasonMessage
 0001:000812DA       GetMoreExpensiveTeamsCount
 0001:000815EC       nullsub_16
 0001:00085C5C       SetZeroFlag2
 0001:00085C60       nullsub_9
 0001:00085C61       SetZeroFlag
 0001:00085C65       nullsub_F10
 0001:00085C68       ScrollPitch
 0001:00085DDD       NoVerticalScroll
 0001:00085DEE       FillPatternsTopRow
 0001:00085E1D       FillPatternsBottomRow
 0001:00085E52       FillPatternsHorizontal
 0001:00085EA5       DrawPatternVertical
 0001:00085F3A       NoHorizontalScroll
 0001:00085F4B       FillPatternsLeftColumn
 0001:00085F6E       FillPatternsRightColumn
 0001:00085F8F       FillPatternsVertical
 0001:00085FCB       DrawPatternHorizontal
 0001:00086063       ScrollUp
 0001:000860C1       ScrollDown
 0001:0008611C       ScrollLeft
 0001:0008616F       ScrollRight
 0001:000861CA       UpdateVisibleScreenPtr
 0001:00086233       DrawBackPattern
 0001:000862A4       CopyPatternToScreen
 0001:00086375       InitBackground
 0001:00086486       Flip
 0001:00086C97       EGAFlip
 0001:00086D4C       SetEGAPalette
 0001:00086DA2       EGAGetVisibleScreenPtr
 0001:00086DD3       EGADrawBackPattern
 0001:00086E1C       EGAInitBackground
 0001:00086F22       EGACopyPatternToScreen
 0001:00087A4A       EGADrawSpriteInGame
 0001:00087AD6       EGA_DrawSprite
 0001:00088CED       UnchainSprites
 0001:00088D82       UnchainSpritesTilZero
 0001:00088DE1       UnchainSprite
 0001:00088E04       DoUnchainSprite
 0001:00088F43       benc_2
 0001:00088FE7       EGACopySprite
 0001:0008913E       EGAFillRectangle
 0001:0008AA19       a1_02
 0001:0008AA1E       InitAIL22khz
 0001:0008ABA2       InitAIL11khz
 0001:0008AD26       StopAIL
 0001:0008AF9B       AIL_init_sequences
 0001:0008B025       PlayMidi
 0001:0008B0B6       AIL_set_XMIDI_master_volume_wrapper
 0001:0008B0E2       StopMidiSequence
 0001:0008B13E       IsSamplePlaying
 0001:0008B1B7       StopAudio
 0001:0008B219       PlaySfxSample22Khz
 0001:0008B381       PlayRefereeWhistleSample
 0001:0008B4E9       PlayBasicSample11Khz
 0001:0008B651       PlayCommentarySample22Khz
 0001:0008B806       EndSample2
 0001:0008B83A       SetSampleVolume2
 0001:0008B8A0       PlayChantSample22Khz
 0001:0008B9F9       PlaySample11kHz
 0001:0008BB52       CommentarySampleDoneCallback
 0001:0008BB6D       SfxSampleDoneCallback
 0001:0008BB88       EndGameSampleCallback
 0001:0008BBA3       ChantSampleDoneCallback
 0001:0008BBBE       StopSample2
 0001:0008BBF3       PlayIntroSample
 0001:0008BF74       LockMemory
 0001:0008C0E8       LockMemoryWrapper
 0001:0008CA5C       start
 0001:0008CA5E       aWatcomCC32RunT
 0001:0008CAD0       aCon
 0001:0008CCEB       __exit_
 0001:0008CCED       __do_exit_with_msg__
 0001:0008CD28       __GETDS
 0001:0008CD31       __saved_DS
 0001:0008CD33       LockMemory3
 0001:0008CEED       AIL_startup
 0001:0008D069       AIL_shutdown
 0001:0008D0FC       AIL_set_preference
 0001:0008D200       AIL_get_real_vect
 0001:0008D2EB       AIL_set_real_vect
 0001:0008D364       AIL_set_USE16_ISR
 0001:0008D3EE       AIL_restore_USE16_ISR
 0001:0008D475       AIL_call_driver
 0001:0008D577       AIL_print_result
 0001:0008D58B       AIL_delay
 0001:0008D5F8       j_Return_AIL_word
 0001:0008D5FD       AIL_API_read_INI
 0001:0008D956       AIL_register_timer
 0001:0008DA41       AIL_set_timer_user
 0001:0008DB34       AIL_set_timer_period
 0001:0008DBAA       AIL_set_timer_frequency
 0001:0008DC20       AIL_set_timer_divisor
 0001:0008DC96       AIL_interrupt_divisor
 0001:0008DD74       AIL_start_timer
 0001:0008DDE1       AIL_start_all_timers
 0001:0008DE43       AIL_stop_timer
 0001:0008DEB0       AIL_stop_all_timers
 0001:0008DF12       AIL_release_timer_handle
 0001:0008DF7F       AIL_release_all_timers
 0001:0008DFE1       AIL_get_IO_environment
 0001:0008E0C6       AIL_install_driver
 0001:0008E1B9       AIL_uninstall_driver
 0001:0008E226       AIL_install_DIG_INI
 0001:0008E317       AIL_install_DIG_driver_file
 0001:0008E404       AIL_uninstall_DIG_driver
 0001:0008E471       AIL_allocate_sample_handle
 0001:0008E556       AIL_allocate_file_sample
 0001:0008E655       AIL_release_sample_handle
 0001:0008E6C2       AIL_init_sample
 0001:0008E72F       AIL_set_sample_file
 0001:0008E835       AIL_set_sample_address
 0001:0008E8B7       AIL_set_sample_type
 0001:0008E939       AIL_start_sample
 0001:0008E9A6       AIL_stop_sample
 0001:0008EA13       AIL_resume_sample
 0001:0008EA80       AIL_end_sample
 0001:0008EAED       AIL_set_sample_playback_rate
 0001:0008EB63       AIL_set_sample_volume
 0001:0008EBD9       AIL_set_sample_pan
 0001:0008EC4F       AIL_set_sample_loop_count
 0001:0008ECC5       AIL_sample_status
 0001:0008EDAA       AIL_sample_playback_rate
 0001:0008EE8F       AIL_sample_volume
 0001:0008EF74       AIL_sample_pan
 0001:0008F059       AIL_sample_loop_count
 0001:0008F13E       AIL_set_digital_master_volume
 0001:0008F1B4       AIL_digital_master_volume
 0001:0008F299       AIL_install_DIG_driver_image
 0001:0008F392       AIL_minimum_sample_buffer_size
 0001:0008F48B       AIL_sample_buffer_ready
 0001:0008F570       AIL_load_sample_buffer
 0001:0008F5FF       AIL_set_sample_position
 0001:0008F675       AIL_sample_position
 0001:0008F75A       AIL_register_SOB_callback
 0001:0008F847       AIL_register_EOB_callback
 0001:0008F934       AIL_register_EOS_callback
 0001:0008FA21       AIL_register_EOF_callback
 0001:0008FB0E       AIL_set_sample_user_data
 0001:0008FB90       AIL_sample_user_data
 0001:0008FC7D       AIL_active_sample_count
 0001:0008FD62       AIL_install_MDI_INI
 0001:0008FE47       AIL_install_MDI_driver_file
 0001:0008FF34       AIL_uninstall_MDI_driver
 0001:0008FFA1       AIL_allocate_sequence_handle
 0001:00090086       AIL_release_sequence_handle
 0001:000900F3       AIL_init_sequence
 0001:000901EC       AIL_start_sequence
 0001:00090259       AIL_stop_sequence
 0001:000902C6       AIL_resume_sequence
 0001:00090333       AIL_end_sequence
 0001:000903A0       AIL_set_sequence_tempo
 0001:00090422       AIL_set_sequence_volume
 0001:000904A4       AIL_set_sequence_loop_count
 0001:0009051A       AIL_sequence_status
 0001:000905FF       AIL_sequence_tempo
 0001:000906E4       AIL_sequence_volume
 0001:000907C9       AIL_sequence_loop_count
 0001:000908AE       AIL_set_XMIDI_master_volume
 0001:00090924       AIL_XMIDI_master_volume
 0001:00090A09       AIL_install_MDI_driver_image
 0001:00090B02       AIL_MDI_driver_type
 0001:00090BFB       AIL_set_GTL_filename_prefix
 0001:00090C68       AIL_timbre_status
 0001:00090D61       AIL_install_timbre
 0001:00090E5A       AIL_protect_timbre
 0001:00090EDC       AIL_unprotect_timbre
 0001:00090F5E       AIL_active_sequence_count
 0001:00091043       AIL_controller_value
 0001:0009113C       AIL_channel_notes
 0001:00091229       AIL_sequence_position
 0001:00091331       AIL_branch_index
 0001:000913A7       AIL_register_prefix_callback
 0001:00091494       AIL_register_trigger_callback
 0001:00091581       AIL_register_sequence_callback
 0001:0009166E       AIL_register_beat_callback
 0001:0009175B       AIL_register_event_callback
 0001:00091848       AIL_register_timbre_callback
 0001:00091935       AIL_set_sequence_user_data
 0001:000919B7       AIL_sequence_user_data
 0001:00091AA4       AIL_register_ICA_array
 0001:00091B1A       AIL_lock_channel
 0001:00091BFF       AIL_release_channel
 0001:00091C75       AIL_map_sequence_channel
 0001:00091CF7       AIL_true_sequence_channel
 0001:00091DE4       AIL_send_channel_voice_message
 0001:00091E7D       AIL_send_sysex_message
 0001:00091EF3       AIL_create_wave_synthesizer
 0001:00091FFB       AIL_destroy_wave_synthesizer
 0001:0009211B       TimerProc2
 0001:000924D3       AIL_internal_set_preference
 0001:0009282E       LockMemory2
 0001:000929F4       printf_
 0001:00092A2D       getch_
 0001:00092A4A       _nmalloc_
 0001:00092B2D       _nfree_
 0001:00092BAF       lseek_
 0001:00092BF2       read_
 0001:00092CED       int386_
 0001:00092D0A       open_
 0001:00092D2E       sopen_
 0001:00092F17       __set_binary_
 0001:00092F80       strcmp_
 0001:00093021       close_
 0001:00093050       memset_
 0001:00093068       filelength_
 0001:000930A5       write_
 0001:0009327A       __CMain
 0001:000932CA       __InitRtns
 0001:00093315       __FiniRtns
 0001:00093364       nullsub_23
 0001:00093382       Int8Handler
 0001:00093570       InstallInt8Handler
 0001:00093B1E       AIL_InterruptLevel
 0001:00093B2A       AIL_register_timer_internal
 0001:00093D5F       fprintf_
 0001:00093D80       getenv_
 0001:00093DE1       __open_flags_
 0001:00093F76       _fsopen_
 0001:00093FAF       fopen_
 0001:00094021       freopen_
 0001:00094063       isatty_
 0001:0009408A       setbuf_
 0001:000940A7       time_
 0001:000940D6       _localtime_
 0001:00094127       localtime_
 0001:00094134       convDec_
 0001:00094167       _asctime_
 0001:00094254       _ctime_
 0001:0009426D       ctime_
 0001:00094272       asctime_
 0001:0009427F       strcpy_
 0001:0009429E       fclose_
 0001:000942CB       __shutdown_stream_
 0001:000942EC       __MkTmpFile_
 0001:00094351       __doclose_
 0001:00094530       AIL_set_sample_volume_internal
 0001:00094850       TimerProc3
 0001:000959A0       AIL_sample_status_internal
 0001:000959E0       AIL_set_sample_type_internal
 0001:000977F0       TimerProc4
 0001:00098A70       Safe_AIL_stop_sequence
 0001:0009A773       toupper_
 0001:0009A781       strlen_
 0001:0009A79A       strnicmp_
 0001:0009A7ED       fgets_
 0001:0009A856       memmove_
 0001:0009A8A3       strncpy_
 0001:0009A8D9       __fprtf_
 0001:0009A958       __MemAllocator
 0001:0009AA00       __MemFree
 0001:0009AB5C       __FreeDPMIBlocks_
 0001:0009ABB8       __ReAllocDPMIBlock_
 0001:0009AD2B       __LastFree_
 0001:0009AD7B       RationalAlloc_
 0001:0009AEFC       __ExpandDGROUP_
 0001:0009B0C8       _dosret0_
 0001:0009B0CF       _dosretax_
 0001:0009B0D3       __set_errno_dos_
 0001:0009B144       __IOMode_
 0001:0009B199       __SetIOMode_
 0001:0009B1AE       __set_EDOM_
 0001:0009B1B3       __set_errno_
 0001:0009B1BF       __set_ERANGE_
 0001:0009B1C6       __set_EINVAL_
 0001:0009B1D6       __set_doserrno_
 0001:0009B1E2       segread_
 0001:0009B20A       int386x_
 0001:0009B223       __close_
 0001:0009B260       __STOSB
 0001:0009B297       __STOSD
 0001:0009B303       stackavail_
 0001:0009B314       __CHK
 0001:0009B324       __GRO
 0001:0009B327       __STK
 0001:0009B345       __STKOVERFLOW_
 0001:0009B354       __CommonInit_
 0001:0009B3BD       __null_int23_exit_
 0001:0009B3BE       exit_
 0001:0009B3D6       _exit_
 0001:0009B3EC       tolower_
 0001:0009B3FA       __allocfp_
 0001:0009B4A0       __freefp_
 0001:0009B4D9       __purgefp_
 0001:0009B539       fseek_
 0001:0009B635       __chktty_
 0001:0009B666       setvbuf_
 0001:0009B6CD       __getctime_
 0001:0009B790       mktime_
 0001:0009B8E4       __CacheOSTZ_
 0001:0009B950       tzset_
 0001:0009B95E       __parse_tz_
 0001:0009BCB4       __brktime_
 0001:0009BDC9       _gmtime_
 0001:0009BDE7       gmtime
 0001:0009BDF4       __leapyear_
 0001:0009BF48       __isindst_
 0001:0009C241       __flush_
 0001:0009C31A       ftell_
 0001:0009C35C       remove_
 0001:0009E499       strncmp_
 0001:0009E4C2       stricmp_
 0001:0009E51C       sprintf_
 0001:0009E54C       fgetc_
 0001:0009E5D5       __filbuf_
 0001:0009E604       __fill_buffer_
 0001:0009E6B0       fputc_
 0001:0009E754       __ioalloc_
 0001:0009E7CB       __prtf_
 0001:0009F3A9       unknown_libname_1
 0001:0009F3B9       sbrk_
 0001:0009F481       __brk_
 0001:0009F558       __int386x_
 0001:0009F5B5       _DoINTR_
 0001:0009F636       callInterruptTable
 0001:0009F6C9       Call_Int31h
 0001:0009F936       __exit_with_msg_
 0001:0009F93B       __fatal_runtime_error_
 0001:0009FAF9       __restore_int23_
 0001:0009FCAF       __restore_int_ctrl_break_
 0001:0009FCE7       __grab_int23_
 0001:0009FE02       __grab_int_ctrl_break_
 0001:0009FF1D       __setenvp_
 0001:0009FFF1       tell_
 0001:000A0002       __InitFiles_
 0001:000A0079       __full_io_exit_
 0001:000A0085       fcloseall_
 0001:000A00E2       __qwrite_
 0001:000A0156       fflush_
 0001:000A0166       unlink_
 0001:000A0187       flushall_
 0001:000A018C       __flushall_
 0001:000A01BB       getche_
 0001:000A01D8       __qread_
 0001:000A01F7       a0123456789ab_0
 0001:000A021C       utoa_
 0001:000A0266       itoa_
 0001:000A0293       a0123456789ab_1
 0001:000A02B8       ultoa_
 0001:000A0302       ltoa_
 0001:000A031D       __EnterWVIDEO_
 0001:000A0343       __sigabort_
 0001:000A034D       __sigfpe_handler_
 0001:000A0382       signal_
 0001:000A0437       raise_
 0001:000A04FA       _chain_intr_
 0001:000A0513       _dos_setvect_
 0001:000A0540       _dos_getvect_
 0001:000A0572       abort_
 0001:000A0578       __terminate_
 0001:000A058F       __GrabFP87_
 0001:000A08DA       __Phar_hook_init_
 0001:000A099D       __Phar_hook_fini_
 0001:000A09CA       __DOS4G_hook_init_
 0001:000A09F7       __DOS4G_hook_fini_
 0001:000A0A10       __Ergo_hook_init_
 0001:000A0A4E       __Ergo_hook_fini_
 0001:000A0A68       __Intel_hook_init_
 0001:000A0AC0       __Intel_hook_fini_
 0001:000A0ACB       __init_8087_
 0001:000A0AFC       _fpreset_
 0001:000A0B06       __chk8087_
 0001:000A0B50       nullsub_24
 0001:000A0B52       __init_80x87
 0002:00000008       a_02u_02u_02u__
 0002:00000023       singleSpaceString
 0002:00000025       dotSymbolString
 0002:00000027       aAil_debug
 0002:00000031       aAil_sys_debug
 0002:0000003F       aWT
 0002:00000094       a3_03
 0002:00000099       aAudioInterface
 0002:000000E0       aStartTimeS
 0002:00000142       aAil_startup
 0002:00000151       aAil_shutdown
 0002:00000161       aAil_set_prefer
 0002:0000017C       aResultD
 0002:00000189       aAil_get_real_v
 0002:000001A2       aResult0xX
 0002:000001B1       aAil_set_real_v
 0002:000001CF       aAil_set_use16_
 0002:000001EE       aAil_restore_us
 0002:00000209       aAil_call_drive
 0002:0000022F       aAil_delayD
 0002:0000023E       aAil_api_read_i
 0002:00000259       aDriverS
 0002:00000266       aDeviceS
 0002:00000273       aIoX
 0002:00000280       aIrqD
 0002:0000028D       aDma_8D
 0002:0000029A       aDma_16D
 0002:000002A7       aResultU
 0002:000002B4       aAil_register_t
 0002:000002CE       aAil_set_time_1
 0002:000002E9       aAil_set_time_0
 0002:00000306       aAil_set_time_2
 0002:00000326       aAil_set_timer_
 0002:00000344       aAil_interrupt_
 0002:0000035D       aAil_start_time
 0002:00000372       aAil_start_all_
 0002:0000038A       aAil_stop_timer
 0002:0000039E       aAil_stop_all_t
 0002:000003B5       aAil_release_ti
 0002:000003D3       aAil_release_al
 0002:000003ED       aAil_get_io_env
 0002:0000040B       aAil_install_dr
 0002:00000428       aAil_uninstal_1
 0002:00000444       aAil_install_di
 0002:0000045F       aAil_install__0
 0002:00000485       aAil_uninstall_
 0002:000004A5       aAil_allocate_s
 0002:000004C7       aAil_allocate_f
 0002:000004EF       aAil_release_sa
 0002:00000510       aAil_init_sampl
 0002:00000527       aAil_set_samp_4
 0002:0000054A       aAil_set_sample
 0002:00000570       aAil_set_samp_0
 0002:00000591       aAil_start_samp
 0002:000005A9       aAil_stop_sampl
 0002:000005C0       aAil_resume_sam
 0002:000005D9       aAil_end_sample
 0002:000005EF       aAil_set_samp_1
 0002:00000616       aAil_set_samp_2
 0002:00000636       aAil_set_samp_5
 0002:00000653       aAil_set_samp_3
 0002:00000677       aAil_sample_sta
 0002:00000690       aAil_sample_pla
 0002:000006B0       aAil_sample_vol
 0002:000006C9       aAil_sample_pan
 0002:000006DF       aAil_sample_loo
 0002:000006FC       aAil_set_digita
 0002:00000724       aAil_digital_ma
 0002:00000745       aAil_install__2
 0002:00000771       aAil_minimum_sa
 0002:0000079D       aAil_sample_buf
 0002:000007BC       aAil_load_sampl
 0002:000007E5       aAil_set_samp_6
 0002:00000807       aAil_sample_pos
 0002:00000822       aAil_register_s
 0002:00000848       aAil_register_0
 0002:0000086E       aAil_register_e
 0002:00000894       aAil_register_1
 0002:000008BA       aAil_set_samp_7
 0002:000008E0       aAil_sample_use
 0002:000008FF       aAil_active_sam
 0002:0000091E       aAil_install_md
 0002:00000939       aAil_install__1
 0002:0000095F       aAil_uninstal_0
 0002:0000097F       aAil_allocate_0
 0002:000009A3       aAil_release_se
 0002:000009C6       aAil_init_seque
 0002:000009E7       aAil_start_sequ
 0002:00000A01       aAil_stop_seque
 0002:00000A1A       aAil_resume_seq
 0002:00000A35       aAil_end_sequen
 0002:00000A4D       aAil_set_sequ_0
 0002:00000A71       aAil_set_sequ_1
 0002:00000A96       aAil_set_sequen
 0002:00000ABC       aAil_sequence_s
 0002:00000AD7       aAil_sequence_t
 0002:00000AF1       aAil_sequence_v
 0002:00000B0C       aAil_sequence_l
 0002:00000B2B       aAil_set_xmidi_
 0002:00000B51       aAil_xmidi_mast
 0002:00000B70       aAil_install__3
 0002:00000B9C       aAil_mdi_driver
 0002:00000BB7       aAil_set_gtl_fi
 0002:00000BD8       aAil_timbre_sta
 0002:00000BF7       aAil_install_ti
 0002:00000C17       aAil_protect_ti
 0002:00000C37       aAil_unprotect_
 0002:00000C59       aAil_active_seq
 0002:00000C7A       aAil_controller
 0002:00000C9C       aAil_channel_no
 0002:00000CB8       aAil_sequence_p
 0002:00000CDF       aResultDD
 0002:00000CEF       aAil_branch_ind
 0002:00000D0A       aAil_register_p
 0002:00000D33       aAil_register_2
 0002:00000D5D       aAil_register_3
 0002:00000D88       aAil_register_b
 0002:00000DAF       aAil_register_4
 0002:00000DD7       aAil_register_5
 0002:00000E00       aAil_set_sequ_2
 0002:00000E28       aAil_sequence_u
 0002:00000E49       aAil_register_i
 0002:00000E6C       aAil_lock_chann
 0002:00000E84       aAil_release_ch
 0002:00000EA2       aAil_map_sequen
 0002:00000EC8       aAil_true_seque
 0002:00000EEC       aAil_send_chann
 0002:00000F26       aAil_send_sysex
 0002:00000F49       aAil_create_wav
 0002:00000F79       aAil_destroy_wa
 0002:00000FA0       a0123456789ab_2
 0002:00000FB1       aRt
 0002:00000FB4       aDriver
 0002:00000FBB       aDevice
 0002:00000FC2       aIo_addr
 0002:00000FCA       aIrq
 0002:00000FCE       aDma_8_bit
 0002:00000FD8       aDma_16_bit
 0002:00000FE3       aCorrupted_iniF
 0002:00000FF8       aInsufficientMe
 0002:00001023       aInsufficientLo
 0002:0000103C       aAil3dig
 0002:00001044       aAil3mdi
 0002:0000104C       aInvalidDriverT
 0002:00001061       aOutOfDriverHan
 0002:00001078       aOutOfTimerHand
 0002:00001090       aMinimumDmaBuff
 0002:000010BC       aCouldNotAlloca
 0002:000010E4       a_digDriverRequ
 0002:000010FC       aDigitalSoundHa
 0002:00001120       aCouldNotAllo_0
 0002:00001140       aCouldNotAllo_1
 0002:00001164       aCouldNotAllo_2
 0002:0000118C       aOutOfTimerHa_0
 0002:000011A4       aDriverFileNotF
 0002:000011BC       aDig_ini
 0002:000011C4       aUnableToOpenFi
 0002:000011E4       aOutOfSampleHan
 0002:000011FC       aFmt
 0002:00001201       aData
 0002:00001206       aCreative
 0002:0000120F       aWave
 0002:00001214       aUnrecognizedDi
 0002:0000123A       aInvalidOrMissi
 0002:00001259       aUnrecognized_0
 0002:0000127F       aInvalidOrMis_0
 0002:000012A0       aForm
 0002:000012A8       aCat
 0002:000012B0       aXmid
 0002:000012B8       aInternalNoteQu
 0002:000012D8       aCouldNotAllo_3
 0002:00001300       a_mdiDriverRequ
 0002:00001318       aXmidiSoundHard
 0002:00001338       aCouldNotInitia
 0002:00001364       aCouldNotAllo_4
 0002:0000138C       aOutOfTimerHa_1
 0002:000013A4       aDriverFileNo_0
 0002:000013BC       aMdi_ini
 0002:000013C4       aUnableToOpen_0
 0002:000013E4       aTandy3VoiceMus
 0002:000013F8       aIbmInternalSpe
 0002:00001413       aM_ad
 0002:00001418       a_opl
 0002:00001420       aOutOfSequenceH
 0002:0000143C       aInvalidXmidiSe
 0002:00001454       aTimb
 0002:0000145C       aRbrn
 0002:00001464       aEvnt
 0002:0000146C       aNoTimbresLoade
 0002:00001480       aDriverCouldNot
 0002:000014B4       aDriverCouldN_0
 0002:000014E8       aInsufficient_0
 0002:00001514       aTz
 0002:00001518       aNotEnoughMemor
 0002:00001548       aFloatingPointS
 0002:0000156C       aAbnormalTermin
 0002:00001584       aJfmamjjasondae
 0002:000016F8       aChairmanScenes
 0002:00001708       aCommentary
 0002:0000171B       aQuitToDos
 0002:00001727       aReturnToGame
 0002:00001736       aResigned
 0002:00001743       aRetired
 0002:0000174F       aNational
 0002:00001758       aA_0
 0002:0000175D       a12Season
 0002:0000176A       a102Season
 0002:00001778       aManagementReco
 0002:00001793       aQualified
 0002:0000179F       aNotQualified
 0002:000017AF       aPromoted
 0002:000017BA       aRelegated
 0002:000017C6       aWinners
 0002:000017CE       aRunnerUp
 0002:000017D8       aPosition0
 0002:000017E5       aFinalist
 0002:000017EE       aThirdPlace
 0002:000017FA       aFourthPlace
 0002:00001807       aReachedSemiFin
 0002:0000181A       aReachedQuarter
 0002:00001830       aKnockedOutInRo
 0002:00001848       aStillInCompeti
 0002:0000185D       aSacked
 0002:00001868       aSeasonSTopScor
 0002:0000187C       aSeasonSTopSc_0
 0002:00001891       aA0
 0002:00001898       aCareerTotal
 0002:000018A5       aAllMatches
 0002:000018B1       aPl0W1D2L3F4A5
 0002:000018DF       aWon0Drawn1Lost
 0002:000018F9       aDash
 0002:000018FB       aSeveral
 0002:00001903       aWinnerQualifie
 0002:00001914       aTop0Qualify
 0002:00001923       aCoachMatch
 0002:0000192F       aPlayMatch
 0002:0000193A       aItIsWithGreatR
 0002:0000196E       aRenewYourContr
 0002:0000199E       aAndWeLookForwa
 0002:000019C5       aMemoFromThePre
 0002:000019DD       aThePresident
 0002:000019EB       aWellDoneAYouDi
 0002:00001A12       aThisSeasonAndW
 0002:00001A37       aAGoodSeasonAWe
 0002:00001A59       aPleasedWithYou
 0002:00001A81       aAnUpAndDownSea
 0002:00001AAB       aCanImproveOnTh
 0002:00001AD2       aNotAVeryGoodSe
 0002:00001AFD       aImproveOnOurPe
 0002:00001B24       aAVeryDisappoin
 0002:00001B4E       aMuchBetterFrom
 0002:00001B6F       aThanksForAllYo
 0002:00001B98       aYouWellInYourN
 0002:00001BB1       aWelcomeAWeLook
 0002:00001BD5       aSuccessFromOur
 0002:00001BF6       aWelcomeAWeHope
 0002:00001C1E       aSeasonInManage
 0002:00001C4F       aJustANoteToWis
 0002:00001C7C       aNewSeason
 0002:00001C87       aWeAllHopeYouEn
 0002:00001CBC       aBeforeHandingT
 0002:00001CEB       aWeAllWishYouTh
 0002:00001D1C       aDistinguishedC
 0002:00001D49       aViewOtherTeam
 0002:00001D59       aTheMembersOfTh
 0002:00001D81       aOfAWouldLikeTo
 0002:00001DA7       aAsCoachOfTheNa
 0002:00001DC5       aWeCanPromiseYo
 0002:00001DF0       aAnAnnuallyRevi
 0002:00001E10       aWeLookForwar_0
 0002:00001E34       aTheMembersOf_0
 0002:00001E5C       aOfAAreDelighte
 0002:00001E7E       aAcceptedThePos
 0002:00001EB2       aFromTheStart_0
 0002:00001ED0       nullString2
 0002:00001ED1       aWeLookForwar_1
 0002:00001EF4       aOther
 0002:00001EFA       aInternationalJ
 0002:00001F12       aInternationa_0
 0002:00001F32       aFr
 0002:00001F35       aWc
 0002:00001F38       aWcq
 0002:00001F3C       aEc
 0002:00001F3F       aEcq
 0002:00001F43       aNac
 0002:00001F47       aCa
 0002:00001F4A       aAnc
 0002:00001F4E       aAc
 0002:00001F51       aOc
 0002:00001F54       aTnm
 0002:00001F58       aTr
 0002:00001F5B       aClubs
 0002:00001F61       aAddInternation
 0002:00001F81       aAddInternati_0
 0002:00001FA3       aAddPlayer
 0002:00001FAE       aRemovePlayer
 0002:00001FBC       aRemovePlayers
 0002:00001FCB       aToReplace
 0002:00001FD6       aSelect1MoreInt
 0002:00001FFF       aSelect0MoreInt
 0002:0000202A       aASquad
 0002:00002033       aChangeSquad
 0002:00002040       aSelectSquad
 0002:0000204D       aSquadSelected
 0002:0000205C       aCannotPlayOldV
 0002:00002087       aTraining
 0002:00002090       aRes
 0002:00002094       aTrial
 0002:0000209A       aViewATeam
 0002:000020A6       aViewBTeam
 0002:000020B2       aUseMatchTeam
 0002:000020C1       aPleaseNoteATha
 0002:000020E6       aBHasLeftTheClu
 0002:000020FB       aPleaseNoteAT_0
 0002:00002122       aBHasLeftTheC_0
 0002:00002137       aPleaseNoteAT_1
 0002:0000214E       aHasJoinedTheCl
 0002:0000216B       aTspvhcfstpvhcf
 0002:000021EE       aE_c_Qualifier
 0002:000021FD       aWorldCupQualif
 0002:0000221B       aW_c_Qualifier
 0002:0000222A       aEuropeanTour
 0002:00002238       aAfricanTour
 0002:00002245       aSouthAmericanT
 0002:00002259       aNorthAmericanT
 0002:0000226D       aAsianTour
 0002:00002278       aOceaniaTour
 0002:00002285       aTour
 0002:0000228A       aInvitationTour
 0002:000022A0       aInvTournament
 0002:000022AF       aFriendly_0
 0002:000022B8       aFriendly_1
 0002:000022C1       aFriendlies
 0002:000022CC       worldCupQualification
 0002:000022CD       aWorldCupQualification
 0002:000022E5       aWorld_1
 0002:000022EB       europeanChampionship
 0002:000022EC       aEuropeanChampionship
 0002:00002302       aWorld_2
 0002:00002308       aEuropeanChampionships
 0002:0000231F       aE_c_QualifyingGroup1
 0002:00002337       aE_c_QualifyingGroup2
 0002:0000234F       aE_c_QualifyingGroup3
 0002:00002367       aE_c_QualifyingGroup4
 0002:0000237F       aE_c_QualifyingGroup5
 0002:00002397       aE_c_QualifyingGroup6
 0002:000023AF       aE_c_QualifyingGroup7
 0002:000023C7       aE_c_QualifyingGroup8
 0002:000023DF       aE_c_Finals
 0002:000023EB       aE_c_Qualifier_0
 0002:000023FA       aCopaAmerica
 0002:00002407       aCopaAmerica_0
 0002:00002414       aAfricanNationsCup
 0002:00002428       aAfricanCup
 0002:00002434       aNorthAmericanCup
 0002:00002447       aNAmericanCup
 0002:00002456       aAsianCup
 0002:00002460       aAsianCup_0
 0002:0000246A       aOceaniaCup
 0002:00002476       aOceaniaCup_0
 0002:00002482       aWorldCup
 0002:0000248C       aWorldCupQualification_0
 0002:000024A4       aWorldCupQualifyingGroup1
 0002:000024C1       aWorldCupQualifyingGroup2
 0002:000024DE       aWorldCupQualifyingGroup3
 0002:000024FB       aWorldCupQualifyingGroup4
 0002:00002518       aWorldCupQualifyingGroup5
 0002:00002535       aWorldCupQualifyingGroup6
 0002:00002552       aWorldCupQualifyingGroup7
 0002:0000256F       aWorldCupQualifyingGroup8
 0002:0000258C       aWorldCup_0
 0002:00002596       aW_c_Qualifier_0
 0002:000025A5       aFinalGroups
 0002:000025B2       aFinalGroups_0
 0002:000025BF       aPlayer_0
 0002:000025C6       aPlayerCoach_0
 0002:000025D3       aCoach_3
 0002:000025DB       aCoach_2
 0002:000025E2       aPlayerCoach
 0002:000025F3       aStartCareerAs
 0002:00002603       aPlayer_1
 0002:0000260B       aCoach
 0002:00002613       aPlayer
 0002:0000261B       aViewResult
 0002:00002627       aMatch
 0002:00002631       aResult
 0002:0000263C       aDivision1
 0002:00002647       aDivision2
 0002:00002652       aDivision3
 0002:0000265D       aAllPlayerTeams
 0002:00002674       aFriendlyDiyGam
 0002:0000268D       aFollowingAVote
 0002:000026C3       a3MatchesToTurn
 0002:000026FC       aFollowingACris
 0002:00002731       aClearTheOverdr
 0002:00002762       aContinueCareer
 0002:00002779       aWelcomeToOurCl
 0002:000027A3       aMuchSuccessFro
 0002:000027D0       aYourCareerIsOv
 0002:000027EE       aInsertGameSaveDiskInDf0
 0002:00002813       aHighlights_0
 0002:00002826       aLoadHighlights
 0002:0000283F       aSaveHighlights
 0002:00002858       aViewHighlights
 0002:00002871       aNotAHighlights
 0002:00002895       aHigh
 0002:0000289C       aFormation
 0002:000028AE       aNotACompetitio
 0002:000028D3       aCompetitionFil
 0002:000028FA       aCompetitionF_0
 0002:00002921       aFileSavedOnDif
 0002:0000294C       aTeamsPromote_0
 0002:0000296A       aTeamsPromoted0
 0002:00002999       aTeamsRelegat_0
 0002:000029BA       aTeamsRelegated
 0002:000029EA       aReject
 0002:000029F6       aRetire
 0002:00002A02       aSaveCareer
 0002:00002A12       aRnd1
 0002:00002A18       aRnd2
 0002:00002A1E       aRnd3
 0002:00002A24       aRnd4
 0002:00002A2A       aRnd5
 0002:00002A30       aRnd6
 0002:00002A36       aQF
 0002:00002A3A       aSF
 0002:00002A3E       aFinal_0
 0002:00002A44       aFinal_1
 0002:00002A4A       a3rd
 0002:00002A4E       aFinal_2
 0002:00002A54       aYourChairman
 0002:00002A69       a2Gk
 0002:00002A70       a3Gk
 0002:00002A77       a4Gk
 0002:00002A7E       aLoan
 0002:00002A83       aContinueA
 0002:00002A92       aReplayA
 0002:00002AA1       aSaveA
 0002:00002AB0       a01Season
 0002:00002ABE       a001Season
 0002:00002ACD       a0EndSeason
 0002:00002ADC       aViewOppo
 0002:00002AE6       aViewCompetitio
 0002:00002AF9       pound
 0002:00002AFB       zero
 0002:00002AFC       a1k
 0002:00002B09       a0m
 0002:00002B16       a0_1m
 0002:00002B23       aSorryAButTheCl
 0002:00002B50       aAnyFurtherPlay
 0002:00002B7A       aPleaseNoteAT_2
 0002:00002BA7       aAnyFurtherPl_0
 0002:00002BCD       aPleaseTakeNote
 0002:00002BFE       aEnsureThatWeCl
 0002:00002C35       aJustAReminderT
 0002:00002C6A       aOrWeWillHaveTo
 0002:00002CA1       aItIsWithGrea_0
 0002:00002CD3       aDecidedToRelie
 0002:00002D09       aPleaseTakeNo_0
 0002:00002D3D       aEnsureThatItIs
 0002:00002D71       aRememberUnless
 0002:00002DA3       aWeWillHaveToRe
 0002:00002DD7       aItIsWithGrea_1
 0002:00002E09       aDecidedToRel_0
 0002:00002E3F       aJustANoteToW_0
 0002:00002E73       aNewSeason_0
 0002:00002E8F       aWeAllHopeYou_0
 0002:00002EC4       aBeforeHandin_0
 0002:00002EF9       aWelcomeToOur_0
 0002:00002F2A       aSeasonInMana_0
 0002:00002F5B       aWeAllWishYou_0
 0002:00002F8C       aDistinguishe_0
 0002:00002FBD       aMATCHSTATS
 0002:00002FD7       aPossession
 0002:00002FE8       aGoalAttempts
 0002:00002FF9       aOnTarget
 0002:0000300A       aCornersWon
 0002:0000301B       aFoulsConceded
 0002:0000302C       aBookings
 0002:0000303D       aSendingsOff
 0002:0000304E       a442
 0002:00003054       a541
 0002:0000305A       a451
 0002:00003060       a532
 0002:00003066       a352
 0002:0000306C       a433
 0002:00003072       a424
 0002:00003078       a343
 0002:0000307E       aSweep
 0002:00003084       a523
 0002:0000308A       aAttack
 0002:00003091       aDefend
 0002:00003098       aUSER_A
 0002:0000309F       aUSER_B
 0002:000030A6       aUSER_C
 0002:000030AD       aUSER_D
 0002:000030B4       aUSER_E
 0002:000030BB       aUSER_F
 0002:000030C2       aLparen
 0002:000030C4       aRparen
 0002:000030C6       aAOfferForB
 0002:000030D6       aAOfferForBAndC
 0002:000030ED       aAExchangeOffer
 0002:00003106       aAExchangeOff_0
 0002:00003126       aAOfferFor
 0002:00003133       aB
 0002:00003136       aAOfferFor_0
 0002:00003143       aBAndC
 0002:0000314D       aAExchangeOff_1
 0002:00003163       aB_0
 0002:00003166       aAExchangeOff_2
 0002:0000317C       aBAndC_0
 0002:00003186       aAImprovedOffer
 0002:0000319F       aAImprovedOff_0
 0002:000031BF       aAImprovedExcha
 0002:000031E1       aAImprovedExc_0
 0002:0000320A       aAImprovedOff_1
 0002:00003220       aB_2
 0002:00003223       aAImprovedOff_2
 0002:00003239       aBAndC_3
 0002:00003243       aAImprovedExc_1
 0002:00003262       aB_3
 0002:00003265       aAImprovedExc_2
 0002:00003284       aBAndC_4
 0002:0000328E       aAFurtherImprov
 0002:000032AF       aAFurtherImpr_0
 0002:000032D7       aAFurtherImpr_1
 0002:00003301       aAFurtherImpr_2
 0002:00003332       aAFurtherImpr_3
 0002:00003350       aB_1
 0002:00003353       aAFurtherImpr_4
 0002:00003371       aBAndC_1
 0002:0000337B       aAFurtherImpr_5
 0002:00003398       aOfferForB
 0002:000033A5       aAFurtherImpr_6
 0002:000033C3       aBAndC_2
 0002:000033CD       aJobOfferFromA
 0002:000033DF       aJobOfferFromAW
 0002:000033FB       aDearSirMadam
 0002:00003411       aDearAB
 0002:00003424       aWeHereAtAWishT
 0002:00003449       aWeHereAtAWis_0
 0002:0000346E       aOurOfferToBuy
 0002:00003493       aWeHereAtAWis_1
 0002:000034B8       aImproveOurOffe
 0002:000034DD       aFromAInExchang
 0002:00003502       aWeHereAtAWithd
 0002:00003527       aOfferOn
 0002:0000354C       aWeHereAtARefus
 0002:00003571       aImproveOnOurOf
 0002:00003596       aWeHereAtAAreHa
 0002:000035BB       aWeHereAtAAre_0
 0002:000035E0       aSorryAAreUnwil
 0002:00003605       aSorryAAreUnw_0
 0002:0000362A       aInADealWithAFo
 0002:0000364F       aAsThisPlayerIs
 0002:000036A3       aAsThesePlayers
 0002:000036F7       aAndWeWillAccep
 0002:00003721       aThisPlayerFrom
 0002:0000374B       aAndWeWillAcc_0
 0002:00003775       aThesePlayersFr
 0002:0000379F       aButWeWouldBeHa
 0002:000037C9       aFavourableOffe
 0002:000037F3       aUnlessTheOffer
 0002:00003841       aWeHereAtAWould
 0002:0000386E       aCoachingJobAtO
 0002:00003897       aWeCanOfferYouA
 0002:000038CA       aWeHopeToBeAble
 0002:000038F7       aInTheRegionOfA
 0002:00003926       aWeLookForwardT
 0002:00003955       aWeHereAtAAreDe
 0002:0000397C       aHaveAcceptedTh
 0002:000039B0       aFromTheStartOf
 0002:000039D9       aWeHopeToBeAb_0
 0002:00003A06       aInTheRegionO_0
 0002:00003A35       aMemoFromTheClu
 0002:00003A57       aDearAB_0
 0002:00003A6A       aBestRegards
 0002:00003A87       aComeOnAWeCanno
 0002:00003AB4       aOrTheWageBillW
 0002:00003AE1       aSorryAButTheDi
 0002:00003B0E       aMoreTimeToNego
 0002:00003B3B       aWellDoneAYou_0
 0002:00003B68       aThisSeasonAn_0
 0002:00003B95       aAGoodSeasonA_0
 0002:00003BC2       aPleasedWithY_0
 0002:00003BEF       aAnUpAndDownS_0
 0002:00003C1C       aCanImproveOn_0
 0002:00003C49       aNotAVeryGood_0
 0002:00003C76       aImproveTheTeam
 0002:00003CA2       aAVeryDisappo_0
 0002:00003CCF       aDemandsMuchBet
 0002:00003CFC       aThanksForAll_0
 0002:00003D29       aYouWellInYou_0
 0002:00003D56       aBankStatement
 0002:00003D6B       aOldBalance
 0002:00003D88       aNewBalance
 0002:00003DA5       aBalanceAtStart
 0002:00003DCA       aBalanceAtEndOf
 0002:00003DEF       aTotalProfit
 0002:00003E0C       aTotalLoss
 0002:00003E29       aPlayerSales
 0002:00003E46       aPlayerPurchase
 0002:00003E63       aGateReceipts
 0002:00003E7E       aGeneralRunning
 0002:00003E9E       aAdditionalInve
 0002:00003ECB       aAdditionalIn_0
 0002:00003EF8       aCompetitionBon
 0002:00003F1E       aSponsorshipFor
 0002:00003F44       aSeasonFromSens
 0002:00003F6A       aPlayerWagesBil
 0002:00003F88       insert_blank_disk
 0002:00003F89       aInsertBlankDiskInDf0
 0002:00003FAC       insert_swos_disk_1
 0002:00003FAD       aInsertSwosDisk1InAnyDrive
 0002:00003FD0       insert_swos_disk_2
 0002:00003FD1       aInsertSwosDisk2InAnyDrive
 0002:00003FF4       custom_teams_changed
 0002:00003FF5       aCustomTeamsHaveBeenChanged
 0002:00004018       tactics_have_been_changed
 0002:00004019       aTacticsHaveBeenChanged
 0002:0000403C       edited_tactics_will_be_lost
 0002:0000403D       aEditedTacticsWillBeLost
 0002:00004060       diy_competition_prompt
 0002:00004061       aYouAreAboutToLoseCurrent
 0002:00004083       aDiyCompetition_0
 0002:000040A5       preset_competition
 0002:000040A6       aYouAreAboutToLoseCurrent_0
 0002:000040C8       aPresetCompetition
 0002:000040EA       season
 0002:000040EB       aYouAreAboutToLoseCurrent_1
 0002:0000410D       aSeason_1
 0002:0000412F       career
 0002:00004130       aYouAreAboutToLoseCurrent_2
 0002:00004152       aCareer_1
 0002:00004174       aDiy
 0002:0000417B       aPreset
 0002:00004182       aSeason_0
 0002:00004189       aCareer_0
 0002:00004190       aTact
 0002:00004197       aName
 0002:000041A0       aMr
 0002:000041A3       aMs
 0002:000041A6       aOr
 0002:000041AD       aPlayEachTeamX1
 0002:000041C0       aPlayEachTeamX2
 0002:000041D3       aPlayEachTeamX3
 0002:000041E6       aPlayEachTeamX4
 0002:000041F9       aKnockout
 0002:00004205       a1GroupOf1
 0002:00004215       a0GroupsOf1
 0002:00004225       aWinnersOfEachG
 0002:0000425A       aWinnersOfEac_0
 0002:0000428F       aWinnersOfEac_1
 0002:000042C6       aTop0InEachGrou
 0002:000042FB       aTop0InEachGr_0
 0002:00004330       aTop0InEachGr_1
 0002:00004366       aMatchWinnersQu
 0002:00004396       aMatchWinnersOn
 0002:000043C6       aTop0InGroupQua
 0002:000043F6       aMatchWinnerWin
 0002:00004426       aMatchWinnerOnA
 0002:00004456       aGroupWinnerWin
 0002:00004486       aClubTeams
 0002:0000449A       aNationalTeams
 0002:000044AE       aOriginalCustom
 0002:000044C4       aEditedCustom_0
 0002:000044DA       aSeeded
 0002:000044E5       aPlayTournament
 0002:000044F9       aPlayCup
 0002:0000450D       aPlayLeague
 0002:00004521       aPlaySeason
 0002:00004535       aPlayFriendly
 0002:00004549       aViewSelectedTe
 0002:0000455E       aPl
 0002:00004562       aW
 0002:00004566       aD
 0002:0000456A       aLstr
 0002:0000456E       aF
 0002:00004572       aA_1
 0002:00004576       aPts
 0002:0000457A       aNextRoundDraw
 0002:00004598       aNextRound
 0002:000045B6       aPlayReplays
 0002:000045D4       a2ndLegRound
 0002:000045F2       aDraw
 0002:000045FE       aReplay
 0002:0000460A       aReplays
 0002:00004616       a2ndReplay
 0002:00004622       a3rdReplay
 0002:0000462E       a2ndReplays
 0002:0000463A       a3rdReplays
 0002:00004646       aComputer
 0002:00004653       aSelect0Teams
 0002:00004669       aSelect0MoreTea
 0002:0000467F       aSelect1MoreTea
 0002:00004695       aSelect0LessTea
 0002:000046AB       aSelect1LessTea
 0002:000046C1       aNat
 0002:000046C5       aNationality
 0002:000046D1       aChooseCompetit
 0002:000046E8       aChoosePresetCo
 0002:00004702       aChooseSeason
 0002:00004719       aSelectTeamToEd
 0002:00004730       aChooseTeamsFor
 0002:00004742       aChangeTeamsFor
 0002:00004754       aAllSelectedTea
 0002:0000476C       aTransferMarket
 0002:00004780       aBuyPlayer
 0002:00004793       aBuyOtherDomest
 0002:000047B0       aBuyOtherForeig
 0002:000047CD       aSelectTeamToMa
 0002:000047E5       aSelectTeamToIm
 0002:000047FD       aSelectSquadToV
 0002:00004816       aFriendly
 0002:0000482A       aMakeNewCompeti
 0002:00004844       aMakeNewDiyTour
 0002:0000485E       aMakeNewDiyLeag
 0002:00004878       aMakeNewDiyCup
 0002:00004892       aContinue
 0002:000048A3       aOn
 0002:000048AC       aOff
 0002:000048B5       aOk
 0002:000048BB       aCopy
 0002:000048C4       aUndo
 0002:000048CB       aExit
 0002:000048D1       aCancel
 0002:000048DA       aImport
 0002:000048E1       aFlipOn
 0002:000048EC       aFlipOff
 0002:000048F7       aDiyCompetition
 0002:0000490D       aSelectDiyCompe
 0002:0000492E       aDiyLeague
 0002:00004947       aDiyCup
 0002:00004960       aDiyTournament
 0002:00004979       aDesignDiyLeagu
 0002:0000498F       aDesignDiyCup
 0002:000049A5       aDesignDiyTourn
 0002:000049BB       aAbort
 0002:000049C5       aWinners_0
 0002:000049D8       aV
 0002:000049DA       aPlus
 0002:000049DC       aMinus
 0002:000049DE       aClubBusiness
 0002:000049EF       aNewJob
 0002:00004A00       aNoJobOffers
 0002:00004A11       aJobOffers
 0002:00004A22       aJobOffersBeing
 0002:00004A3E       aFinishSeason
 0002:00004A4F       aPlayMatch_0
 0002:00004A60       aNextMatch
 0002:00004A71       aSquad
 0002:00004A82       aSquads
 0002:00004A93       aTactics
 0002:00004AA4       aEditTactics
 0002:00004AB5       aTactics_0
 0002:00004ABD       aEditTacticsSel
 0002:00004ADB       aBallInPlay
 0002:00004AF2       aBallOutOfPlay
 0002:00004B09       aImportTactics
 0002:00004B1C       aLoadEditedTact
 0002:00004B39       aSaveEditedTact
 0002:00004B56       aTransfers
 0002:00004B67       aViewWorld
 0002:00004B79       aTeams
 0002:00004B85       aDescription
 0002:00004B9E       aNumberOfTeams
 0002:00004BAF       aPlayEachTeam
 0002:00004BC0       aPointsForAWin
 0002:00004BD1       a2PtsForAWin
 0002:00004BE1       a3PtsForAWin
 0002:00004BF1       aX0
 0002:00004BF6       aSubstitutes
 0002:00004C02       aFrom
 0002:00004C08       a1stLeg
 0002:00004C10       a2ndLeg
 0002:00004C18       aLeg1
 0002:00004C1E       aLeg2
 0002:00004C24       a1Leg
 0002:00004C2A       a2Legs
 0002:00004C31       aNoExtraTime
 0002:00004C3F       aExtraTime
 0002:00004C4C       aE_t_IfReplay
 0002:00004C5B       aNoPenalties
 0002:00004C69       aPenalties
 0002:00004C76       aPensIfReplay
 0002:00004C85       aAfter90Mins
 0002:00004C97       aAfterExtraTime
 0002:00004CA9       aPitchType
 0002:00004CB6       aRandom
 0002:00004CBF       aFrozen
 0002:00004CC8       aMuddy
 0002:00004CD1       aWet
 0002:00004CDA       aSoft
 0002:00004CE3       aNormal
 0002:00004CEC       aDry
 0002:00004CF5       aHard
 0002:00004CFE       aAwayGoals
 0002:00004D09       aTournament
 0002:00004D1C       aLeague_0
 0002:00004D2F       aCup_2
 0002:00004D42       aLeague_1
 0002:00004D4D       aCup
 0002:00004D58       aCup_0
 0002:00004D63       aCup_1
 0002:00004D6E       aLeague
 0002:00004D79       aPlayoffs
 0002:00004D84       aPremierDivisio
 0002:00004D95       aDivision1_0
 0002:00004DA0       aDivision2_0
 0002:00004DAB       aDivision3_0
 0002:00004DB6       aPremDiv
 0002:00004DBF       aDiv1
 0002:00004DC5       aDiv2
 0002:00004DCB       aDiv3
 0002:00004DD1       aChooseTeam
 0002:00004DE2       aChooseTeams
 0002:00004DF3       aChangeTeams
 0002:00004E04       aRounds
 0002:00004E0F       aGroupA
 0002:00004E1F       aGroupB
 0002:00004E2F       aGroupC
 0002:00004E3F       aGroupD
 0002:00004E4F       aGroupE
 0002:00004E5F       aGroupF
 0002:00004E6F       aGroupG
 0002:00004E7F       aGroupH
 0002:00004E8F       aAttack_0
 0002:00004E96       aDefend_0
 0002:00004E9D       aG
 0002:00004EA0       aRb
 0002:00004EA3       aLb
 0002:00004EA6       aD_0
 0002:00004EA9       aRw
 0002:00004EAC       aLw
 0002:00004EAF       aM
 0002:00004EB2       aA_2
 0002:00004EB5       aGoalkeeper
 0002:00004EC2       aDefender
 0002:00004ECF       aMidfielder
 0002:00004EDC       aAttacker
 0002:00004EE9       aFirstKit
 0002:00004EF7       aSecondKit
 0002:00004F05       aCareer
 0002:00004F18       aCoach_0
 0002:00004F2C       aCoach_1
 0002:00004F35       aViewMatch
 0002:00004F40       aViewHighligh_0
 0002:00004F52       aManageMatch
 0002:00004F5F       aStats
 0002:00004F67       aLeadingCompeti
 0002:00004F8B       aTopGoalScorers
 0002:00004FA7       aStatistics
 0002:00004FBC       aHighestScorerL
 0002:00004FD2       aCompetitionInf
 0002:00004FE8       aViewSquads
 0002:00004FFD       aViewSquad
 0002:00005012       aManagementRe_0
 0002:0000502C       aSeason
 0002:00005039       aSeasonal
 0002:00005046       aEditCustomTeam
 0002:00005058       aPresetCompetit
 0002:0000506D       aOptions
 0002:0000507E       aHighlights
 0002:0000508F       aBank
 0002:00005097       aH_
 0002:0000509B       aA
 0002:0000509F       aFirstRound
 0002:000050AD       aSecondRound
 0002:000050BB       aThirdRound
 0002:000050C9       aFourthRound
 0002:000050D7       aFifthRound
 0002:000050E5       aSixthRound
 0002:000050F3       aQuarterFinal
 0002:00005101       aSemiFinal
 0002:0000510F       aFinal_3
 0002:0000511D       aFinalGroup
 0002:0000512B       aThirdPlacePlay
 0002:00005140       aRound1
 0002:00005148       aRound2
 0002:00005150       aRound3
 0002:00005158       aRound4
 0002:00005160       aRound5
 0002:00005168       aRound6
 0002:00005170       aQFinal
 0002:00005178       aSFinal
 0002:00005180       aFinal_4
 0002:00005186       aFinalGroup_0
 0002:00005192       a3rdPlayOff
 0002:0000519F       aFinal
 0002:000051AA       aEnglish
 0002:000051BA       aGerman
 0002:000051CA       aFrench
 0002:000051DA       aItalian
 0002:000051EA       aSpanish
 0002:000051FA       a3Mins
 0002:00005209       a5Mins
 0002:00005218       a7Mins
 0002:00005227       a10Mins
 0002:00005236       aGameLength
 0002:00005249       aFixPitchType
 0002:0000525C       aAutoReplays
 0002:0000526F       aAutoSaveHighli
 0002:00005284       aMenuMusic
 0002:00005297       aLanguage
 0002:000052AA       aPlay
 0002:000052B7       aGoals
 0002:000052BF       aForm_0
 0002:000052C6       aLge
 0002:000052CA       aCups
 0002:000052CF       aCup_3
 0002:000052D3       aInt
 0002:000052D7       aTot
 0002:000052DB       aOwnGoals
 0002:000052F4       aEx_PlayerGoals
 0002:0000530C       aJan
 0002:00005310       aFeb
 0002:00005314       aMar
 0002:00005318       aApr
 0002:0000531C       aMay
 0002:00005320       aJun
 0002:00005324       aJul
 0002:00005328       aAug
 0002:0000532C       aSep
 0002:00005330       aOct
 0002:00005334       aNov
 0002:00005338       aDec
 0002:0000533C       aLoadOldCompeti
 0002:00005354       aLoad
 0002:0000535C       aSave
 0002:00005364       aSaveExit
 0002:0000536E       aFilename
 0002:00005380       aDiskError
 0002:000053A5       aDiskWriteProte
 0002:000053CA       aNoDiskInDrive
 0002:000053EF       aFileNotFound
 0002:00005414       aDiskFull
 0002:00005439       aCannotFormatGa
 0002:0000545E       aNotATacticsFil
 0002:00005483       aCompetitionF_1
 0002:000054A8       aEditedCustomTe
 0002:000054CD       aCanOnlySaveMax
 0002:000054F4       aSaveDiskFiling
 0002:00005506       aFormatSaveDisk
 0002:0000551B       aDeleteFile
 0002:00005530       aAny
 0002:0000553D       aPassing
 0002:0000554A       aShooting
 0002:00005557       aHeading
 0002:00005564       aTackling
 0002:00005571       aBallControl
 0002:0000557E       aSpeed
 0002:0000558B       aFinishing
 0002:00005598       aFitness
 0002:000055A5       aCriteria
 0002:000055BD       aPlayersOnDomes
 0002:000055DC       aPlayersOnForei
 0002:000055FB       aType
 0002:00005605       aApproxValue
 0002:00005614       aSkills
 0002:0000561E       aList
 0002:0000562F       aMore
 0002:00005640       aSelectPlayerTo
 0002:00005661       aSelectPlayer_0
 0002:00005682       aPutPlayerOnTra
 0002:000056A0       aViewDomesticPl
 0002:000056BE       aViewForeignPla
 0002:000056DC       aOffers
 0002:000056ED       aDiscardOffer
 0002:00005701       aMakeOffer
 0002:00005715       aGiveFreeTransf
 0002:00005729       aTakeOffMarket
 0002:0000573D       aPlayersCurrent
 0002:0000576D       aPutPlayerOnT_0
 0002:0000578B       aViewOffers
 0002:0000579D       aNoOffers
 0002:000057AF       aConfirmOffer
 0002:000057C1       aThirdPartyOffe
 0002:000057D6       aAcceptOffer
 0002:000057E5       aRejectOffer
 0002:000057F4       aAskForMore
 0002:00005803       aResponseToOffe
 0002:00005817       aMakeImprovedOf
 0002:0000582C       aJobOffer
 0002:00005840       aAccept
 0002:0000584C       aConsider
 0002:00005858       aViewTeam
 0002:00005864       aViewLeague
 0002:00005870       a25k
 0002:00005876       a50k
 0002:0000587C       a75k
 0002:00005882       a100k
 0002:00005888       a150k
 0002:0000588E       a200k
 0002:00005894       a300k
 0002:0000589A       a500k
 0002:000058A0       a750k
 0002:000058A6       a1m
 0002:000058AC       a1_5m
 0002:000058B2       a2m
 0002:000058B8       a3m
 0002:000058BE       a5m
 0002:000058C4       a10m
 0002:000058CA       a15m
 0002:000058D0       aEuropean
 0002:000058DF       aNorthAmerican
 0002:000058EE       aSouthAmerican
 0002:000058FD       aAsian
 0002:0000590C       aOceanian
 0002:0000591B       aAfrican
 0002:0000592A       aEur
 0002:0000592E       aNam
 0002:00005932       aSam
 0002:00005936       aAsi
 0002:0000593A       aOce
 0002:0000593E       aAfr
 0002:00005978       aWcQualifyingGroup1
 0002:00005990       aWcQualifyingGroup2
 0002:000059A8       aWcQualifyingGroup3
 0002:000059C0       aWcQualifyingGroup4
 0002:000059D8       aWcQualifyingGroup5
 0002:000059F0       aWcQualifyingGroup6
 0002:00005A08       aWcQualifyingGroup7
 0002:00005A20       aWcQualifyingGroup8
 0002:00005A38       aWorldCup1
 0002:00005A50       aWorldCup2
 0002:00005A68       aWorldCup3
 0002:00005A80       aWorldCup4
 0002:00005A98       aWorldCup5
 0002:00005AB0       aWorldCup6
 0002:00005AC8       aWorldCup7
 0002:00005AE0       aWorldCup8
 0002:00005AF8       aWorldClubChampionship
 0002:00005B10       aWorldClub
 0002:00005B1B       aEuroChampA
 0002:00005B33       aEuroChampB
 0002:00005B4B       aEuroChampC
 0002:00005B63       aEuroChampD
 0002:00005B7B       aEuroChampE
 0002:00005B93       aEuroChampF
 0002:00005BAB       aEuroChampG
 0002:00005BC3       aEuroChampH
 0002:00005BDB       a_africanClubsCup
 0002:00005BF4       aEuropeanChampionsCup
 0002:00005C0C       aEuropeanCup
 0002:00005C24       aEufaCup
 0002:00005C3C       aEufaCup_0
 0002:00005C54       aEuropeanCupWinnersCup
 0002:00005C6D       aEuroCwCup
 0002:00005C85       aSouthAmericanCup
 0002:00005CDC       aReplay_0
 0002:00005D01       aReplay_1
 0002:00005D1C       aA_e_t_
 0002:00005D41       aA_e_t__0
 0002:00005D5C       aA_e_t_90Mins23
 0002:00005D81       aA_e_t_90Mins_1
 0002:00005D9C       aAWin01OnPens
 0002:00005DC1       aAWin01OnPens_3
 0002:00005DDC       aAWin01OnPensA_
 0002:00005E01       aAWin01OnPens_4
 0002:00005E1D       aAWin01OnPens_0
 0002:00005E47       aAWin01OnPens_5
 0002:00005E63       aA_e_t_Replay
 0002:00005E88       aA_e_t_Replay_0
 0002:00005EA3       aA_e_t_90Mins_0
 0002:00005EC8       aA_e_t_90Mins_2
 0002:00005EE6       aAWin01OnPensRe
 0002:00005F0B       aAWin01OnPens_6
 0002:00005F26       aAWin01OnPens_1
 0002:00005F4B       aAWin01OnPens_7
 0002:00005F67       aAWin01OnPens_2
 0002:00005F91       aAWin01OnPens_8
 0002:00005FAD       a1stLeg01
 0002:00005FC8       a1stLeg01_0
 0002:00005FE3       aAWin23OnAgg_
 0002:00006008       aAWin23OnAgg__0
 0002:00006023       aAWin23OnAgg_A_
 0002:00006048       aAWin23OnAgg__1
 0002:00006064       a23OnAgg_AWin_0
 0002:00006089       aAWinOnAwayGoal
 0002:000060A4       a23OnAgg_AWinOn
 0002:000060CE       aAWinOnAwayGo_0
 0002:000060EA       a23OnAgg_AWin01
 0002:0000610F       aAWin01OnPens_9
 0002:0000612A       a23OnAgg_AWin_1
 0002:00006154       aAWin01OnPen_10
 0002:00006170       a23OnAgg_
 0002:00006195       a23OnAgg__0
 0002:000061B0       aContinue_0
 0002:000061BD       aReplay_2
 0002:000061CA       albania
 0002:000061CB       aAlbania
 0002:000061D3       aAlbanian
 0002:000061DC       austria
 0002:000061DD       aAustria
 0002:000061E5       aAustrian
 0002:000061EE       belgium
 0002:000061EF       aBelgium
 0002:000061F7       aBelgian
 0002:000061FF       bulgaria
 0002:00006200       aBulgaria
 0002:00006209       aBulgarian
 0002:00006213       croatia
 0002:00006214       aCroatia
 0002:0000621C       aCroatian
 0002:00006225       cyprus
 0002:00006226       aCyprus
 0002:0000622D       aCypriot
 0002:00006235       czech_republic
 0002:00006236       aCzechRepublic
 0002:00006245       aCzech
 0002:0000624B       denmark
 0002:0000624C       aDenmark
 0002:00006254       aDanish
 0002:0000625B       england
 0002:0000625C       aEngland
 0002:00006264       aEnglish_0
 0002:0000626C       england_2
 0002:0000626D       aEngland_0
 0002:00006275       aEnglish_1
 0002:0000627D       estonia
 0002:0000627E       aEstonia
 0002:00006286       aEstonian
 0002:0000628F       faroe_islands
 0002:00006290       aFaroeIslands
 0002:0000629E       aFaroeIsles
 0002:000062AA       finland
 0002:000062AB       aFinland
 0002:000062B3       aFinnish
 0002:000062BB       france
 0002:000062BC       aFrance
 0002:000062C3       aFrench_0
 0002:000062CA       germany
 0002:000062CB       aGermany
 0002:000062D3       aGerman_0
 0002:000062DA       greece
 0002:000062DB       aGreece
 0002:000062E2       aGreek
 0002:000062E8       hungary
 0002:000062E9       aHungary
 0002:000062F1       aHungarian
 0002:000062FB       iceland
 0002:000062FC       aIceland
 0002:00006304       aIcelandic
 0002:0000630E       republic_ireland
 0002:0000630F       aRepublicIreland
 0002:00006320       aIrish
 0002:00006326       israel
 0002:00006327       aIsrael
 0002:0000632E       aIsraeli
 0002:00006336       italy
 0002:00006337       aItaly
 0002:0000633D       aItalian_0
 0002:00006345       latvia
 0002:00006346       aLatvia
 0002:0000634D       aLatvian
 0002:00006355       lithuania
 0002:00006356       aLithuania
 0002:00006360       aLithuanian
 0002:0000636B       luxemburg
 0002:0000636C       aLuxembourg
 0002:00006377       aLuxembourg_0
 0002:00006382       malta
 0002:00006383       aMalta
 0002:00006389       aMaltese
 0002:00006391       holland
 0002:00006392       aHolland
 0002:0000639A       aDutch
 0002:000063A0       northern_ireland
 0002:000063A1       aNorthernIreland
 0002:000063B2       aNorthernIrish
 0002:000063C1       norway
 0002:000063C2       aNorway
 0002:000063C9       aNorwegian
 0002:000063D3       poland
 0002:000063D4       aPoland
 0002:000063DB       aPolish
 0002:000063E2       portugal
 0002:000063E3       aPortugal
 0002:000063EC       aPortugese
 0002:000063F6       romania
 0002:000063F7       aRomania
 0002:000063FF       aRomanian
 0002:00006408       russia
 0002:00006409       aRussia
 0002:00006410       aRussian
 0002:00006418       san_marino
 0002:00006419       aSanMarino
 0002:00006424       aSanMarino_0
 0002:0000642F       scotland
 0002:00006430       aScotland
 0002:00006439       aScottish
 0002:00006442       slovenia
 0002:00006443       aSlovenia
 0002:0000644C       aSlovenian
 0002:00006456       spain
 0002:00006457       aSpain
 0002:0000645D       aSpanish_0
 0002:00006465       sweden
 0002:00006466       aSweden
 0002:0000646D       aSwedish
 0002:00006475       switzerland
 0002:00006476       aSwitzerland
 0002:00006482       aSwiss
 0002:00006488       turkey
 0002:00006489       aTurkey
 0002:00006490       aTurkish
 0002:00006498       ukraine
 0002:00006499       aUkraine
 0002:000064A1       aUkrainian
 0002:000064AB       wales
 0002:000064AC       aWales
 0002:000064B2       aWelsh
 0002:000064B8       yugoslavia
 0002:000064B9       aYugoslavia
 0002:000064C4       aYugoslavian
 0002:000064D0       belarus
 0002:000064D1       aBelarus
 0002:000064D9       aBelarussian
 0002:000064E5       slovakia
 0002:000064E6       aSlovakia
 0002:000064EF       aSlovakian
 0002:000064F9       algeria
 0002:000064FA       aAlgeria
 0002:00006502       aAlgerian
 0002:0000650B       south_africa
 0002:0000650C       aSouthAfrica
 0002:00006519       aSouthAfrican
 0002:00006527       ghana
 0002:00006528       aGhana
 0002:0000652E       aGhana_0
 0002:00006534       argentina
 0002:00006535       aArgentina
 0002:0000653F       aArgentinian
 0002:0000654B       bolivia
 0002:0000654C       aBolivia
 0002:00006554       aBolivian
 0002:0000655D       brazil
 0002:0000655E       aBrazil
 0002:00006565       aBrazilian
 0002:0000656F       chile
 0002:00006570       aChile
 0002:00006576       aChilean
 0002:0000657E       colombia
 0002:0000657F       aColombia
 0002:00006588       aColombian
 0002:00006592       ecuador
 0002:00006593       aEcuador
 0002:0000659B       aEcuador_0
 0002:000065A3       paraguay
 0002:000065A4       aParaguay
 0002:000065AD       aParaguayan
 0002:000065B8       peru
 0002:000065B9       aPeru
 0002:000065BE       aPeruvian
 0002:000065C7       surinam
 0002:000065C8       aSurinam
 0002:000065D0       aSurinam_0
 0002:000065D8       uruguay
 0002:000065D9       aUruguay
 0002:000065E1       aUruguayan
 0002:000065EB       venezuela
 0002:000065EC       aVenezuela
 0002:000065F6       aVenezuelan
 0002:00006601       el_salvador
 0002:00006602       aElSalvador
 0002:0000660E       aElSalvador_0
 0002:0000661A       mexico
 0002:0000661B       aMexico
 0002:00006622       aMexican
 0002:0000662A       usa
 0002:0000662B       aU_s_a_
 0002:00006632       aAmerican
 0002:0000663B       japan
 0002:00006642       aJapanese
 0002:0000664B       taiwan
 0002:00006653       aTaiwanese
 0002:0000665D       india
 0002:0000665E       aIndia
 0002:00006664       aIndian
 0002:0000666B       australia
 0002:0000666C       aAustralia
 0002:00006676       aAustralian
 0002:00006681       new_zealand
 0002:00006682       aNewZealand
 0002:0000668E       aNewZealand_0
 0002:0000669A       custom
 0002:0000669B       aCustom
 0002:000066A4       europe
 0002:000066A5       aEurope
 0002:000066AC       aEuropean_1
 0002:000066B5       africa
 0002:000066B6       aAfrica
 0002:000066BD       aAfrican_1
 0002:000066C5       south_america
 0002:000066C6       aSouthAmerica
 0002:000066D4       aSouthAmerican_0
 0002:000066E3       north_america
 0002:000066E4       aNorthAmerica
 0002:000066F2       aNorthAmerican_0
 0002:00006701       asia
 0002:00006702       aAsia
 0002:00006707       aAsian_1
 0002:0000670D       oceania
 0002:0000670E       aOceania
 0002:00006716       aOceanian_1
 0002:0000671F       edited_customs
 0002:00006720       aEditedCustoms
 0002:00006731       world
 0002:00006732       aWorld
 0002:00006738       aWorld_0
 0002:0000673E       zero_country
 0002:00006742       countriesTable
 0002:00006B5A       aEuropean_0
 0002:00006B63       aNorthAmerica_0
 0002:00006B72       aSouthAmerica_0
 0002:00006B81       aAsian_0
 0002:00006B87       aOceanian_0
 0002:00006B90       aAfrican_0
 0002:00006B98       shortCountryNames
 0002:00006D64       a3dpvfspremierL
 0002:00006D79       aPremier
 0002:00006D81       aDivisionOne
 0002:00006D8E       aDivisionTwo
 0002:00006D9B       aDivisionThree
 0002:00006DAA       aCup_4
 0002:00006DAE       aCup_5
 0002:00006DB2       aLeagueCup
 0002:00006DBD       aLeagueCup_0
 0002:00006DC8       aDiv1Playoffs
 0002:00006DD7       aDiv2Playoffs
 0002:00006DE6       aDiv3Playoffs
 0002:00006DF5       aCup_6
 0002:00006DF9       aCup_7
 0002:00006DFD       aLeagueCup_1
 0002:00006E08       aLeagueCup_2
 0002:00006E13       aSerieA
 0002:00006E1B       aSerieB
 0002:00006E23       aCoppaItalia
 0002:00006E30       aCoppa
 0002:00006E36       aPremiereDivisi
 0002:00006E48       aPremiere
 0002:00006E51       aDeuxiemeDivisi
 0002:00006E63       aDeuxieme
 0002:00006E6C       aCoupeDeFrance
 0002:00006E7C       aCoupe
 0002:00006E82       a1_Liga
 0002:00006E8A       a2_Liga
 0002:00006E92       aD_f_b_Pokal
 0002:00006E9F       aPokal
 0002:00006EA5       aPrimeraDivisio
 0002:00006EB6       aPrimera
 0002:00006EBE       aSegundaDivisio
 0002:00006ECF       aSegunda
 0002:00006ED7       aCopa
 0002:00006EDC       aCopa_0
 0002:00006EE1       aJ_League
 0002:00006EEB       aJ_League_0
 0002:00006EF5       aLeague_2
 0002:00006EFC       aLeague_3
 0002:00006F03       aCup_8
 0002:00006F07       aCup_9
 0002:00006F0B       aEmperorSCup
 0002:00006F19       aEmp_Cup
 0002:00006F22       aNorthernRegion
 0002:00006F32       aNorthern
 0002:00006F3B       aCentralRegion
 0002:00006F4A       aCentral
 0002:00006F52       aSouthernRegion
 0002:00006F62       aSouthern
 0002:00006F6B       a1stDivision
 0002:00006F78       aSouthDivision
 0002:00006F87       aSouthDivisio_0
 0002:00006F96       aNswDivision
 0002:00006FA3       aNsw
 0002:00006FA7       aQueenslandDivi
 0002:00006FBB       aQueensland
 0002:00007062       continental_cups
 0002:000071D2       career_contests
 0002:0000732A       aDataEurocup_tm
 0002:0000733B       aDataEurocwc_tm
 0002:0000734C       aDataUefacup_tm
 0002:0000735D       euro_cup
 0002:000073AC       cup_winners_cup
 0002:00007408       uefa_cup
 0002:00007464       world_cup2
 0002:000074D4       worldCup
 0002:00007534       world_cup_qualifying_group_1
 0002:0000755C       world_cup_qualifying_group_2
 0002:00007584       world_cup_qualifying_group_3
 0002:000075AC       world_cup_qualifying_group_4
 0002:000075D4       world_cup_qualifying_group_5
 0002:000075FC       world_cup_qualifying_group_6
 0002:00007624       world_cup_qualifying_group_7
 0002:0000764C       world_cup_qualifying_group_8
 0002:00007674       north_america_world_cup_qualification
 0002:000076BC       south_america_world_cup_qualification
 0002:000076FC       africa_world_cup_qualification
 0002:0000776C       asia_world_cup_qualification
 0002:000077D8       oceania_world_cup_qualification
 0002:000077FC       invitation_tournament
 0002:00007820       tour
 0002:00007844       friendly
 0002:0000786C       european_championships2
 0002:000078BA       european_championships
 0002:00007908       e_c_qualifying_group_1
 0002:00007930       e_c_qualifying_group_2
 0002:00007958       e_c_qualifying_group_3
 0002:00007980       e_c_qualifying_group_4
 0002:000079A8       e_c_qualifying_group_5
 0002:000079D0       e_c_qualifying_group_6
 0002:000079F8       e_c_qualifying_group_7
 0002:00007A20       e_c_qualifying_group_8
 0002:00007A44       copa_america
 0002:00007A8A       african_nations_cup
 0002:00007ABA       north_american_cup
 0002:00007AE8       asian_cup
 0002:00007B18       oceania_cup
 0002:00007B34       albanian_league
 0002:00007B48       austrian_league
 0002:00007B5C       belarussian_league
 0002:00007B70       belgian_league
 0002:00007B84       bulgarian_league
 0002:00007B98       croatian_league
 0002:00007BAC       cypriot_league
 0002:00007BC0       czech_league
 0002:00007BD4       danish_league
 0002:00007BE8       english_leagues
 0002:00007D7E       estonian_league
 0002:00007D92       faroe_isles_league
 0002:00007DA6       finnish_league
 0002:00007DBA       frenche_leagues
 0002:00007DE4       german_leagues
 0002:00007E0E       greek_league
 0002:00007E22       dutch_leagues
 0002:00007EAC       hungarian_league
 0002:00007EC0       icelandic_league
 0002:00007ED4       israeli_league
 0002:00007EE8       italian_leagues
 0002:00007F12       latvian_league
 0002:00007F26       lithuanian_league
 0002:00007F3A       luxembourg_league
 0002:00007F4E       maltese_league
 0002:00007F62       northern_irish_league
 0002:00007F76       norwegian_league
 0002:00007F8A       polish_league
 0002:00007F9E       portugese_league
 0002:00007FB2       irish_league
 0002:00007FC6       romanian_league
 0002:00007FDA       russian_league
 0002:00007FEE       san_marino_league
 0002:00008002       scotland_leagues
 0002:0000806C       slovakian_league
 0002:00008080       slovenian_league
 0002:00008094       spanish_leagues
 0002:0000812E       swedish_league
 0002:00008142       swiss_league
 0002:00008156       turkish_league
 0002:0000816A       ukrainian_league
 0002:0000817E       welsh_league
 0002:00008192       yugoslavian_league
 0002:000081A6       algerian_league
 0002:000081BA       argentinian_league
 0002:000081D4       australian_leagues
 0002:0000821A       bolivian_league
 0002:0000822E       brasilian_league
 0002:00008242       chilean_league
 0002:00008256       colombian_league
 0002:0000826A       ecuador_league
 0002:0000827E       el_salvador_leagues
 0002:000082A4       indian_league
 0002:000082B8       japan_leagues
 0002:000082E2       mexican_leagues
 0002:000082FC       new_zealand_leagues
 0002:00008334       paraguayan_league
 0002:00008348       peruvian_league
 0002:0000835C       south_african_league
 0002:00008370       surinam_league
 0002:00008384       taiwanese_league
 0002:00008398       uruguayan_league
 0002:000083F6       american_league
 0002:0000840A       venezuelan_league
 0002:0000841E       ghana_league
 0002:0000866E       customsLeague
 0002:000086A6       albanian_cup
 0002:000086B8       austrian_cup
 0002:000086CA       belarussian_cup
 0002:000086DC       belgian_cup
 0002:000086EE       bulgarian_cup
 0002:00008700       croatian_cup
 0002:00008712       cypriot_cup
 0002:00008724       czech_cup
 0002:00008736       danish_cup
 0002:00008748       english_cup
 0002:00008764       english_league_cup
 0002:000087B8       estonian_cup
 0002:000087CA       faroe_isles_cup
 0002:000087DC       finnish_cup
 0002:000087EE       french_cup
 0002:0000880A       german_cup
 0002:00008826       greek_cup
 0002:00008838       hungarian_cup
 0002:0000884A       icelandic_cup
 0002:0000885C       irish_cup
 0002:0000886E       israeli_cup
 0002:00008880       italian_cup
 0002:0000889C       latvian_cup
 0002:000088AE       lithuanian_cup
 0002:000088C0       luxembourg_cup
 0002:000088D2       maltese_cup
 0002:000088E4       dutch_cup
 0002:000088F8       northern_irish_cup
 0002:0000890A       norwegian_cup
 0002:0000891C       polish_cup
 0002:0000892E       portugese_cup
 0002:00008940       romanian_cup
 0002:00008952       russian_cup
 0002:00008964       san_marino_cup
 0002:00008976       scottish_cup
 0002:00008992       scottish_league_cup
 0002:000089AE       slovakian_cup
 0002:000089C0       slovenian_cup
 0002:000089D2       spanish_cup
 0002:000089EE       swedish_cup
 0002:00008A00       swiss_cup
 0002:00008A12       turkish_cup
 0002:00008A24       ukrainian_cup
 0002:00008A36       welsh_cup
 0002:00008A48       yugoslavian_cup
 0002:00008A5A       algerian_cup
 0002:00008A6C       australian_cup
 0002:00008A80       japanese_cup
 0002:00008A9A       japanese_emperors_cup
 0002:00008AB4       south_african_cup
 0002:00008AC6       taiwanese_cup
 0002:00008B1C       competitionsTable
 0002:00008F1C       world_cup_qualifying_groups
 0002:00008F42       e_c_qualifying_groups
 0002:00008F68       customs_table
 0002:00008F74       world_table
 0002:00008F84       europe_table
 0002:00008FC8       africa_table
 0002:00008FD8       south_america_table
 0002:00008FF0       north_america_table
 0002:00009000       asia_table
 0002:00009010       oceania_table
 0002:00009020       albaniaTable
 0002:00009030       austriaTable
 0002:00009040       belgium_table
 0002:00009050       belarus_table
 0002:00009060       bulgaria_table
 0002:00009070       croatia_table
 0002:00009080       cyprus_table
 0002:00009090       czech_republic_table
 0002:000090A0       denmark_table
 0002:000090B0       england_table
 0002:000090C4       estonia_table
 0002:000090D4       faroe_islands_table
 0002:000090E4       finland_table
 0002:000090F4       france_table
 0002:00009104       germany_table
 0002:00009114       greece_table
 0002:00009124       hungary_table
 0002:00009134       iceland_table
 0002:00009144       republic_ireland_table
 0002:00009154       israel_table
 0002:00009164       italy_table
 0002:00009174       latvia_table
 0002:00009184       lithuania_table
 0002:00009194       luxembourg_table
 0002:000091A4       malta_table
 0002:000091B4       holland_table
 0002:000091C4       northern_ireland_table
 0002:000091D4       norway_table
 0002:000091E4       poland_table
 0002:000091F4       portugal_table
 0002:00009204       romania_table
 0002:00009214       russia_table
 0002:00009224       san_marino_table
 0002:00009234       scotland_table
 0002:00009248       slovakia_table
 0002:00009258       slovenia_table
 0002:00009268       spain_table
 0002:00009278       sweden_table
 0002:00009288       switzerland_table
 0002:00009298       turkey_table
 0002:000092A8       ukraine_table
 0002:000092B8       wales_table
 0002:000092C8       yugoslavia_table
 0002:000092D8       algeria_table
 0002:000092E8       argentina_table
 0002:000092F4       australia_table
 0002:00009304       bolivia_table
 0002:00009310       brasil_table
 0002:0000931C       chile_table
 0002:00009328       colombia_table
 0002:00009334       ecuador_table
 0002:00009340       el_salvador_table
 0002:0000934C       india_table
 0002:00009358       japan_table
 0002:0000936C       mexico_table
 0002:00009378       new_zealand_table
 0002:00009384       paraguay_table
 0002:00009390       peru_table
 0002:0000939C       south_africa_table
 0002:000093AC       surinam_table
 0002:000093B8       taiwan_table
 0002:000093C8       uruguay_table
 0002:000093D4       usa_table
 0002:000093E0       venezuela_table
 0002:000093EC       ghana_table
 0002:000093F8       all_countries_list
 0002:0000958C       careerFileBuffer
 0002:0000958E       tmdFileBuffer
 0002:00016B50       currentSeasonShowing
 0002:00016B52       stayingInOldClub
 0002:00016B5E       youreSacked
 0002:00016B60       retired
 0002:00016B66       club_business_active
 0002:00016B68       new_balance
 0002:00016B6C       old_balance
 0002:00016B70       player_purchases
 0002:00016B74       player_sales
 0002:00016B78       general_running_costs
 0002:00016B7C       player_wages_bill
 0002:00016B80       gate_receipts
 0002:00016B84       starting_balance
 0002:00016B8C       competition_bonuses
 0002:00016B90       sensisoft_plc_sponsorship
 0002:00016C48       additional_investments
 0002:00016C78       isCareer
 0002:00016C7C       games_played
 0002:00016C7E       num_wins
 0002:00016C80       num_drawn
 0002:00016C82       num_lost
 0002:00016C84       goals_scored
 0002:00016C86       goals_taken
 0002:00016CA4       team_no_offer_accepted
 0002:00016CA6       team_funds_accepted
 0002:00016CAA       isNationalSelector
 0002:00016CAC       someTeamFlags
 0002:00016CAE       last_nationality_call
 0002:00016CBA       season_review
 0002:00016CD6       selTeamNumber
 0002:00016CD8       coachOrPlayer
 0002:00016CDA       careerTeamLeague
 0002:00016CE4       mrOrMs
 0002:00016CE6       managerSexBuffer
 0002:00016CEB       managerNameBuffer
 0002:00016CF4       managerSurnameBuffer
 0002:00016D01       plNationality
 0002:00016D18       numOffers
 0002:00016E02       careerNumPoolPlayers
 0002:00016E10       num_new_job_offers
 0002:00016E12       new_job_offers
 0002:00016E94       num_job_offers
 0002:00016E96       job_offers
 0002:00016F18       timeToNegotiate
 0002:00016F1A       num_players_on_transfer_market
 0002:00016F1C       players_on_transfer_market
 0002:000170EC       currentMatchPlayers
 0002:0001710C       careerTeam
 0002:00017618       careerNumPlayers
 0002:00017E68       some_leagues_table
 0002:00018638       currentTeam
 0002:00018B44       playerPositions
 0002:00018B64       numPlayers
 0002:00018B66       currentTeamNumber
 0002:00018B6C       trainingMatchSavedPlayers
 0002:00018BB2       lastMatchPlayers
 0002:00018BF2       currentTactics
 0002:00018CA6       seasonFinished
 0002:00018CA8       careerFinished
 0002:00018CC4       season_number_of_squads
 0002:0001ACB4       euroCupCopy
 0002:0001AD03       cupWinnersCupCopy
 0002:0001AD5F       uefaCupCopy
 0002:0001ADBB       invitationTournamentCopy
 0002:0001ADDF       tourCopy
 0002:0001AE03       friendly_copy
 0002:0001AE2B       european_championships2_copy
 0002:0001AE79       e_c_qualifying_group_1_copy
 0002:0001AEA1       e_c_qualifying_group_2_copy
 0002:0001AEC9       e_c_qualifying_group_3_copy
 0002:0001AEF1       e_c_qualifying_group_4_copy
 0002:0001AF19       e_c_qualifying_group_5_copy
 0002:0001AF41       e_c_qualifying_group_6_copy
 0002:0001AF69       e_c_qualifying_group_7_copy
 0002:0001AF91       e_c_qualifying_group_8_copy
 0002:0001AFB5       copaAmericaCopy
 0002:0001AFFB       africanNationsCupCopy
 0002:0001B02B       northAmericanCupCopy
 0002:0001B059       asianCupCopy
 0002:0001B089       oceaniaCupCopy
 0002:0001B0A5       world_cup2_copy
 0002:0001B115       world_cup_qualifying_group_1_copy
 0002:0001B13D       world_cup_qualifying_group_2_copy
 0002:0001B165       world_cup_qualifying_group_3_copy
 0002:0001B18D       world_cup_qualifying_group_4_copy
 0002:0001B1B5       world_cup_qualifying_group_5_copy
 0002:0001B1DD       world_cup_qualifying_group_6_copy
 0002:0001B205       world_cup_qualifying_group_7_copy
 0002:0001B22D       world_cup_qualifying_group_8_copy
 0002:0001B255       north_america_world_cup_qualification_copy
 0002:0001B29D       south_america_world_cup_qualification_copy
 0002:0001B2DD       africa_world_cup_qualification_copy
 0002:0001B34D       asia_world_cup_qualification_copy
 0002:0001B3B9       oceania_world_cup_qualification_copy
 0002:0001BB34       careerPlayers
 0002:0001F4F6       diyFileBuffer
 0002:0001F4F8       competitionOver
 0002:0001F4FA       diy_preset_name_of_competition
 0002:00020049       seasonPlaying
 0002:0002004A       inFriendlyMenu
 0002:0002004C       isNationalTeam
 0002:0002004E       g_gameType
 0002:00020050       contestStarted
 0002:00020054       USER_A
 0002:000201C6       USER_B
 0002:00020338       USER_C
 0002:000204AA       USER_D
 0002:0002061C       USER_E
 0002:0002078E       USER_F
 0002:00020900       gameLength
 0002:00020902       autoReplays
 0002:00020904       menuMusic
 0002:00020906       autoSaveHighlights
 0002:00020908       allPlayerTeamsEqual
 0002:0002090A       pitchType
 0002:0002090C       commentary
 0002:0002090E       chairmanScenes
 0002:00020910       seed2
 0002:00020911       randXorIndex2
 0002:00020912       randXorByte2
 0002:00020913       new_random_seed_copy
 0002:00020914       randomSeed
 0002:00020928       selTeamsPtr
 0002:00020937       inEditTactics
 0002:00020939       trainingGameCopy
 0002:0002093B       g_numSelectedTeams
 0002:0002093D       g_selectedTeams
 0002:0003146D       D0
 0002:00031471       D1
 0002:00031475       D2
 0002:00031479       D3
 0002:0003147D       D4
 0002:00031481       D5
 0002:00031485       D6
 0002:00031489       D7
 0002:0003148D       A0
 0002:00031491       A1
 0002:00031495       A2
 0002:00031499       A3
 0002:0003149D       A4
 0002:000314A1       A5
 0002:000314A5       A6
 0002:000314A9       dstBytesDiv4
 0002:000314AD       memAllOk
 0002:000314B9       dosMemOfs3d400h
 0002:000314BD       menuMusicPtr
 0002:000314C9       EGA_graphics
 0002:000314CB       setupDatBuffer
 0002:000314CD       g_soundOff
 0002:000314CF       g_musicOff
 0002:000314D1       g_joyKbdWord
 0002:000314D7       videoSpeedIndex
 0002:000314DF       g_joy1XValue
 0002:000314E0       g_joy1YValue
 0002:000314E1       g_joy1X
 0002:000314E3       g_joy1Y
 0002:000314E9       g_joy1CenterX
 0002:000314EB       g_joy1CenterY
 0002:000314F1       g_joy1MinY
 0002:000314F3       g_joy1MinX
 0002:000314F5       g_joy1MaxX
 0002:000314F7       g_joy1MaxY
 0002:000314F9       g_joy1XLeftDivisor
 0002:000314FB       g_joy1XRightDivisor
 0002:000314FD       g_joy1YTopDivisor
 0002:000314FF       g_joy1YBottomDivisor
 0002:00031501       g_joy2XValue
 0002:00031502       g_joy2YValue
 0002:00031503       g_joy2X
 0002:00031505       g_joy2Y
 0002:0003150B       g_joy2CenterX
 0002:0003150D       g_joy2CenterY
 0002:00031513       g_joy2MinY
 0002:00031515       g_joy2MinX
 0002:00031517       g_joy2MaxX
 0002:00031519       g_joy2MaxY
 0002:0003151B       g_joy2XLeftDivisor
 0002:0003151D       g_joy2XRightDivisor
 0002:0003151F       g_joy2YTopDivisor
 0002:00031521       g_joy2YBottomDivisor
 0002:00031523       g_joy1Status
 0002:00031525       g_joy2Status
 0002:00031527       g_numLoopsJoy1
 0002:00031529       g_numLoopsJoy2
 0002:0003152B       UP
 0002:0003152C       DOWN
 0002:0003152D       LEFT
 0002:0003152E       RIGHT
 0002:0003152F       FIRE
 0002:00031530       g_joy1Fire1
 0002:00031531       g_joy1Fire2
 0002:00031532       g_joy2Fire1
 0002:00031533       g_joy2Fire2
 0002:0003153A       dosMemOfs60c00h
 0002:0003154A       dosMemOfs4fc00h
 0002:00031552       dosMemOfs30000h
 0002:0003156A       poolplyrDatBuffer
 0002:0003E152       linAdr384k
 0002:0003E156       handle384k
 0002:0003E15A       linAdr120k
 0002:0003E15E       handle120k
 0002:0003E162       linAdr982k
 0002:0003E166       handle982k
 0002:0003E16A       linAdr2_6Mb
 0002:0003E16E       handle2_6Mb
 0002:0003E192       g_workingPalette
 0002:0003E492       g_fadePalette
 0002:0003E792       nullPalette
 0002:0003EA92       aSave256Handle
 0002:0003EA98       keyCount
 0002:0003EA9A       keyBuffer
 0002:0003EAA6       g_scanCode
 0002:0003EAB4       int9Ofs
 0002:0003EABA       int9Seg
 0002:0003EABE       controlWord
 0002:0003EAC8       errorCheckWord
 0002:0003EAD0       convertedKey
 0002:0003EAD2       prevVideoMode
 0002:0003EB7B       chainfontDestBuffer
 0002:0003ECCF       playGame
 0002:0003ECD1       someColorConversionFlag
 0002:0003ECD5       team1Filename
 0002:0003ECD9       team2Filename
 0002:0003ECE9       longFireCounter
 0002:0003ECEB       final_controls_status2
 0002:0003ECED       finalControlsStatus
 0002:0003ECEF       last_controls
 0002:0003ECF1       controlsHeldTimer
 0002:0003ECF3       fire
 0002:0003ECF5       shortFire
 0002:0003ECF7       longFireTime
 0002:0003ECF9       longFireFlag
 0002:0003ECFB       up
 0002:0003ECFC       down
 0002:0003ECFD       left
 0002:0003ECFE       right
 0002:0003ED00       fireResetFlag
 0002:0003ED02       currentMenuPtr
 0002:0003ED06       menuStatus
 0002:0003ED08       menuFade
 0002:0003ED0A       controlsStatus
 0002:0003ED0C       menuBlinkCounter
 0002:0003ED10       charTables
 0002:0003ED20       numbersBuffer
 0002:0003ED28       shirtColorTable
 0002:0003ED32       aDataTeam_nnn
 0002:0003ED40       aCustoms_edt
 0002:0003ED4C       aCurrent_cmp
 0002:0003ED58       s_gameLength
 0002:0003ED5A       s_autoReplays
 0002:0003ED5C       s_menuMusic
 0002:0003ED5E       s_autoSaveHighlights
 0002:0003ED60       s_allPlayerTeamsEqual
 0002:0003ED62       s_pitchType
 0002:0003ED64       s_commentary
 0002:0003ED66       s_chairmanScenes
 0002:0003ED68       teamFileBuffer
 0002:0004E776       surnameBuf
 0002:0004E78E       menuProcNumTimesCalled
 0002:0004E790       twoPlayers
 0002:0004E792       player1ClearFlag
 0002:0004E794       player2ClearFlag
 0002:0004E79A       sizeOfTeamFile
 0002:0004E79E       teamFilenameBuffer
 0002:0004E7D0       numberOfTeams
 0002:0004E7D2       lastLoadedExtNumber
 0002:0004E7D4       fundsBuffer
 0002:0004E7D5       resultString
 0002:0004E81C       saveFileName
 0002:0004E82A       impTactFilename
 0002:0004E838       hilFilename
 0002:0004E988       highestScorersTable
 0002:0004E9E4       inMenuKeyboardBuffer
 0002:0004EA48       menuSize
 0002:0004EA4C       endOfMenu
 0002:0004EA50       templateMenuEntry
 0002:0004EA88       g_exitMenu
 0002:0004EA8A       diyFileBufferCopy
 0002:0004EABD       diyPitchTypeOrSeason
 0002:0004EABF       diyPitchType
 0002:0004EEA9       DIY_competition_start
 0002:0004EEAD       diy_league_name
 0002:0004EEDA       diy_league_num_teams
 0002:0004EEDC       diy_pitch_type_or_season
 0002:0004EEDE       diyLeaguePitchType
 0002:0004EEE0       diy_league_start_month
 0002:0004EEE1       diy_league_end_month
 0002:0004EEE6       diySelectedButtonOrd
 0002:0004EF06       diy_league_play_each_team
 0002:0004EF08       diy_min_substitutes
 0002:0004EF0A       diy_points_for_a_win
 0002:0004EF0C       diy_league_min_substitutes
 0002:0004EF0E       diy_league_max_substitutes
 0002:0004F5DC       leftTeamSaved
 0002:0004FC84       rightTeamSaved
 0002:0005032C       numSpritesToRender
 0002:0005032E       teamsLoaded
 0002:00050330       poolplyrLoaded
 0002:00050332       lastKey
 0002:00050334       frameCount
 0002:00050336       timerDifference
 0002:00050338       lastStoppageTimerValue
 0002:0005033A       stoppageTimer
 0002:0005033C       currentTick
 0002:00050348       dontDrawMenuItems
 0002:0005034A       menuX
 0002:0005034C       menuY
 0002:0005034E       offsetSpriteDat
 0002:00050352       smallCharsTable
 0002:00050360       conversionTableSmall
 0002:00050440       bigCharsTable
 0002:0005044E       conversionTableBig
 0002:0005052E       cameraXMod320
 0002:00050530       cameraYMod320
 0002:00050532       oldCameraX
 0002:00050534       oldCameraY
 0002:00050536       cameraXFraction
 0002:00050538       cameraX
 0002:0005053A       cameraYFraction
 0002:0005053C       cameraY
 0002:0005055A       pl1LastFired
 0002:0005055B       pl1Left
 0002:0005055C       pl1Right
 0002:0005055D       pl1Up
 0002:0005055E       pl1Down
 0002:0005055F       pl1Fire
 0002:00050560       pl1SecondaryFire
 0002:00050561       pl1UpRight
 0002:00050562       pl1UpLeft
 0002:00050563       pl1DownRight
 0002:00050564       pl1DownLeft
 0002:00050569       pl1ShortFire
 0002:0005056A       pl1ShortFireCounter
 0002:0005056C       pl1FinalStatus
 0002:00050572       pl2LastFired
 0002:00050573       pl2Left
 0002:00050574       pl2Right
 0002:00050575       pl2Up
 0002:00050576       pl2Down
 0002:00050577       pl2Fire
 0002:00050578       pl2SecondaryFire
 0002:00050579       pl2UpRight
 0002:0005057A       pl2UpLeft
 0002:0005057B       pl2DownRight
 0002:0005057C       pl2DownLeft
 0002:00050581       pl2ShortFire
 0002:00050582       pl2FinalStatus
 0002:00050584       pl2ShortFireCounter
 0002:00050586       hilPlaying
 0002:00050588       deltaColor
 0002:0005058B       teamColorsTable
 0002:000505E5       leaveFireFlag
 0002:000505E7       ctrl001
 0002:000505E9       putIntoJoy1Fire
 0002:000505EB       nearJoy2Fire
 0002:000505F3       goalieCatchSpeedConst
 0002:00050C27       substitutedPlSpeed
 0002:00050C2B       goalkeeperSpeedWhenGameStopped
 0002:00050C2F       ballGroundConstant
 0002:00050C31       ballAirConstant
 0002:00050C33       playerGroundConstant
 0002:00050C37       ball_kicking_delta_z_2
 0002:00050C3B       ballSpeedBounceFactor
 0002:00050C3D       ballBounceFactor
 0002:00050C3F       pitchBallSpeedFactor
 0002:00050C41       ballSpeedBounceFactorTable
 0002:00050C4F       ballBounceFactorTable
 0002:00050C5D       pitchBallSpeedInfluence
 0002:00050C6B       gravity_constant
 0002:00050CC7       goalkeeperGameSpeed
 0002:00050CC9       player_tackling_speed
 0002:00050CCB       jump_header_speed_const
 0002:00050CE3       ball_kicking_delta_z
 0002:00050CE7       ball_kicking_speed
 0002:00050CE9       high_kick_delta_z
 0002:00050CED       high_kick_ball_speed
 0002:00050CEF       normal_kick_delta_z
 0002:00050CF3       normal_kick_ball_speed
 0002:00050CF5       spin_multiplier_factor
 0002:00050D09       kick_spin_factor
 0002:00050D49       passing_spin_factor
 0002:00050D89       referee_speed
 0002:00050DA4       savedRandStatePtr
 0002:00050DA8       savedRandState
 0002:00050DAA       big_S_Sprite
 0002:00050E18       cornerFlagSprite
 0002:00050E86       advertIngameSprites
 0002:000511F6       refereeSprite
 0002:000512D2       currentTimeSprite
 0002:00051340       resultOnHalftime
 0002:000513AE       resultAfterTheGame
 0002:0005141C       team1NameSprite
 0002:0005148A       team2NameSprite
 0002:000514F8       team1GoalsDigit2Sprite
 0002:00051566       team1GoalsDigit1Sprite
 0002:000515D4       team2GoalsDigit2Sprite
 0002:00051642       team2GoalsDigit1Sprite
 0002:000516B0       team1TotalGoalsDigit2Sprite
 0002:0005171E       team1TotalGoalsDigit1Sprite
 0002:0005178C       team2TotalGoalsDigit2Sprite
 0002:000517FA       team2TotalGoalsDigit1Sprite
 0002:00051868       dashSprite
 0002:000518D6       team1Scorer1Sprite
 0002:00051944       team1Scorer2Sprite
 0002:000519B2       team1Scorer3Sprite
 0002:00051A20       team1Scorer4Sprite
 0002:00051A8E       team1Scorer5Sprite
 0002:00051AFC       team1Scorer6Sprite
 0002:00051B6A       team1Scorer7Sprite
 0002:00051BD8       team1Scorer8Sprite
 0002:00051C46       team2Scorer1Sprite
 0002:00051CB4       team2Scorer2Sprite
 0002:00051D22       team2Scorer3Sprite
 0002:00051D90       team2Scorer4Sprite
 0002:00051DFE       team2Scorer5Sprite
 0002:00051E6C       team2Scorer6Sprite
 0002:00051EDA       team2Scorer7Sprite
 0002:00051F48       team2Scorer8Sprite
 0002:00051FB6       playerMarkSprite
 0002:00052024       currentPlayerNameSprite
 0002:00052092       team1CurPlayerNumSprite
 0002:00052100       team2CurPlayerNumSprite
 0002:0005216E       bookedPlayerSprite
 0002:000521DC       goalie1Sprite
 0002:0005224A       team1Player2Sprite
 0002:000522B8       team1Player3Sprite
 0002:00052326       team1Player4Sprite
 0002:00052394       team1Player5Sprite
 0002:00052402       team1Player6Sprite
 0002:00052470       team1Player7Sprite
 0002:000524DE       team1Player8Sprite
 0002:0005254C       team1Player9Sprite
 0002:000525BA       team1Player10Sprite
 0002:00052628       team1Player11Sprite
 0002:00052696       goalie2Sprite
 0002:00052704       team2Player2Sprite
 0002:00052772       team2Player3Sprite
 0002:000527E0       team2Player4Sprite
 0002:0005284E       team2Player5Sprite
 0002:000528BC       team2Player6Sprite
 0002:0005292A       team2Player7Sprite
 0002:00052998       team2Player8Sprite
 0002:00052A06       team2Player9Sprite
 0002:00052A74       team2Player10Sprite
 0002:00052AE2       team2Player11Sprite
 0002:00052B50       ballSprite
 0002:00052BBE       ballShadowSprite
 0002:00052C2C       gridUpperRowLeftSprite
 0002:00052C9A       gridUpperRowRightSprite
 0002:00052D08       gridMiddleRowLeftSprite
 0002:00052D76       gridMiddleRowRightSprite
 0002:00052DE4       gridBottomRowLeftSprite
 0002:00052E52       gridBottomRowRightSprite
 0002:00052EC0       goal1TopSprite
 0002:00052F2E       goal2BottomSprite
 0002:00052F9C       team1SpritesTable
 0002:00052FC8       team2SpritesTable
 0002:00052FF4       allSpritesArray
 0002:00053130       sortedSprites
 0002:0005326C       aSensibleWorldOfSoccer_0
 0002:00053285       aPreReleaseVers
 0002:000532AB       lastSelectedTeam
 0002:000532AD       selectedTeamIndex
 0002:000532AF       selectedLeagueIndex
 0002:000532B1       selectedTeamText
 0002:000532B5       selectedContest
 0002:000532BB       prevSelectedTeamEntry
 0002:000532BD       gameTypeStr
 0002:000532C1       curCountryStr
 0002:000532C5       teamNames
 0002:000532ED       countryNames
 0002:000533ED       numLeaguesInCountry
 0002:000533EF       chooseTeamsNumTeams
 0002:000533F1       startingTeamIndex
 0002:000533F3       teamsLowerBound
 0002:000533F5       numTeamsColumn1
 0002:000533F7       numTeamsColumn2
 0002:000533F9       numTeamsColumn3
 0002:000533FB       headerYPlusHeight
 0002:000533FD       exitY
 0002:000533FF       selectedTeamsStackPtr
 0002:00053401       topOfStackMark
 0002:00053411       selectedTeamsStack
 0002:00053425       leaguesPtrTable
 0002:0005344D       leagueNumbersTable
 0002:00053461       isContestContinentalCup
 0002:00053463       isCountryNumber
 0002:00053467       got_country_name
 0002:00053469       load_team
 0002:0005346B       show_cups_and_other
 0002:0005346D       play_season
 0002:00053471       teamsType
 0002:00053473       showClubTeams
 0002:00053475       showNationalTeams
 0002:00053477       showOrigCustomTeams
 0002:00053479       numberOfLeagues
 0002:0005347B       stay_in_select_teams
 0002:0005347D       exitFlag
 0002:0005347F       leagueNumber
 0002:00053481       playWhatStr
 0002:00053485       first_part
 0002:00053489       entry_text2
 0002:0005348D       chooseTeamsFunc
 0002:00053493       select_teams_no_limit
 0002:00053495       numNeededTeams
 0002:000534A3       sel_team_ptr
 0002:000534A7       sel_team_country_num
 0002:000534A9       chooseTeamsResult
 0002:000534AB       changeTeams
 0002:000534AD       viewSelectedTeams
 0002:000534AF       abortSelectTeams
 0002:000534B1       exit_select_teams
 0002:000534B3       teams_table
 0002:00053517       teams_index
 0002:000536A8       teams_ptr_table
 0002:00053838       aLoadLiverpool
 0002:00053847       aError
 0002:0005384E       positionsTable
 0002:00053896       defaultPositions
 0002:000538A1       positions_5_4_1
 0002:000538AC       positions_4_5_1
 0002:000538B7       positions_5_3_2
 0002:000538C2       positions_3_5_2
 0002:000538CD       positions_4_3_3
 0002:000538D8       positions_4_2_4
 0002:000538E3       positions_3_4_3
 0002:000538EE       positions_sweep
 0002:000538F9       positions_5_2_3
 0002:00053904       positions_atack
 0002:0005390F       positions_defend
 0002:0005391A       divisions_table
 0002:0005396A       rounds_str_table
 0002:00053A12       playerPositionsStringTable
 0002:00053A62       tacticsStringTable
 0002:00053ABA       avg_team_value_bases
 0002:00053B84       avgTeamValues
 0002:00053C18       teamFilenamesTable
 0002:00053C38       ingameTeamPlayerOffsets
 0002:00053C58       colorTableShine
 0002:00053C68       viewTeamsColumn1
 0002:00053C6A       viewTeamsColumn2
 0002:00053C6C       view_teams_column3
 0002:00053C6E       sel_teams_upper_bound
 0002:00053C70       view_teams_start_y
 0002:00053C72       view_teams_abort_y
 0002:00053C74       team_numbers_indices
 0002:00053CB4       team_pointers
 0002:00053DB4       num_selected_teams_copy
 0002:00053DB6       leftTeamIngame
 0002:0005445E       rightTeamIngame
 0002:00054B06       stadiumMenuHeader
 0002:00054B2E       gameName
 0002:00054B56       gameMinSubstitutes
 0002:00054B58       gameMaxSubstitutes
 0002:00054B5A       squadChangesAllowed
 0002:00054B5C       playMatchTeam1Ptr
 0002:00054B60       playMatchTeam2Ptr
 0002:00054B64       maxSubstitutesEntries
 0002:00054B66       pmMenuNumPlayers
 0002:00054B68       numPlayersToShowInMenu
 0002:00054B6A       viewingOpponentTeam
 0002:00054B6C       selectedPlayerPosition
 0002:00054B6E       selectedPlayerTacticsPosition
 0002:00054B70       pmSelectedPlayerEntry
 0002:00054B74       play_match_control_flags
 0002:00054B76       playerNumThatStarted
 0002:00054B78       D2_param
 0002:00054B7E       diy_selected
 0002:00054BC8       errorText
 0002:00054BCC       promptHeader
 0002:00054BD0       whatIsChanging
 0002:00054BD4       continueText
 0002:00054BD8       abortText
 0002:00054BDC       contAbortDefault
 0002:00054BDE       contAbortResult
 0002:00054C20       diy_tournament_look_only
 0002:00054C22       diy_tournament_select_teams
 0002:00054C6E       hilLeftTeamGoals
 0002:00054C70       hilRightTeamGoals
 0002:00054C72       winningTeamPtr
 0002:00054C76       stats_team1_goals_copy2
 0002:00054C78       stats_team2_goals_copy2
 0002:00054C7A       saved_team1_goals
 0002:00054C7C       saved_team2_goals
 0002:00054C7E       stats_team1_goals_copy
 0002:00054C80       stats_team2_goals_copy
 0002:00054C82       statsTeam1Goals
 0002:00054C84       statsTeam2Goals
 0002:00054C86       team1Goals
 0002:00054C88       team2Goals
 0002:00054C8A       team1GoalsDigit2
 0002:00054C8C       team2GoalsDigit2
 0002:00054C8E       team1GoalsDigit1
 0002:00054C90       team2GoalsDigit1
 0002:00054C92       team1_name_length
 0002:00054C94       team2_name_length
 0002:00054D38       diy_competition_type
 0002:00054D3C       diy_name_of_competition_ptr
 0002:00054D40       diy_teams_buffer_ptr
 0002:00054D44       diy_number_of_teams
 0002:00054D46       choose_team_menu_name
 0002:00054D4A       team_selected
 0002:00054D4C       dw_array_countries
 0002:00054E4C       sel_teams_column1
 0002:00054E4E       sel_teams_column2
 0002:00054E50       sel_teams_column3
 0002:00054E52       num_teams
 0002:00054E58       b_index_countries
 0002:00054E9E       diy_stats_name
 0002:00054EA4       ball_speed
 0002:00054EE2       current_message
 0002:00054EEC       aChris_0
 0002:00054EF2       aChapman_0
 0002:00054EFA       unchainBuffer
 0002:00054F02       aGrafsSoccer_s_lbm
 0002:00054F15       aDataPoolplyr_d
 0002:00054F27       aGrafsLoader00_
 0002:00054F3A       aGrafsLoader01_
 0002:00054F4D       aGrafsLoader1_l
 0002:00054F5F       aGrafsLoader2_l
 0002:00054F71       aGrafsLoader3_l
 0002:00054F83       aGrafsLoader4_l
 0002:00054F95       aGrafsLoader5_l
 0002:00054FA7       aGrafsLoader6_l
 0002:00054FB9       aGrafsLoader7_l
 0002:00054FCB       aGrafsLoader8_l
 0002:00054FDD       aGrafsLoader9_l
 0002:00054FEF       aGrafsLoader10_
 0002:00055002       aGrafsMenu3_lbm
 0002:00055012       aStad01_lbm
 0002:0005501D       aGrafsMenus_lbm
 0002:0005502D       aGrafsMenus2_lb
 0002:0005503E       aGrafsCharset_l
 0002:00055050       aSwcpich1_p16
 0002:0005505D       aSwcpich2_p16
 0002:0005506A       aSwcpich3_p16
 0002:00055077       aSwcpich4_p16
 0002:00055084       aSwcpich5_p16
 0002:00055091       aSwcpich6_p16
 0002:0005509E       aGrafsCjcbits_l
 0002:000550B0       aGrafsCjcgrafs_
 0002:000550C3       aGrafsCjcbench_
 0002:000550D6       aGrafsWinscrn_l
 0002:000550E8       ofsSwpich1Dat
 0002:000550EC       ofsSwpich2Dat
 0002:000550F0       ofsSwpich3Dat
 0002:000550F4       ofsSwpich4Dat
 0002:000550F8       ofsSwpich5Dat
 0002:000550FC       ofsSwpich6Dat
 0002:00055100       ofsPitch1Dat
 0002:00055104       ofsPitch2Dat
 0002:00055108       ofsPitch3Dat
 0002:0005510C       ofsPitch4Dat
 0002:00055110       ofsPitch5Dat
 0002:00055114       ofsPitch6Dat
 0002:00055118       aPitch1_dat
 0002:00055123       aPitch2_dat
 0002:0005512E       aPitch3_dat
 0002:00055139       aPitch4_dat
 0002:00055144       aPitch5_dat
 0002:0005514F       aPitch6_dat
 0002:0005515A       aGrafsTVert_lbm
 0002:0005516B       aGrafsTPlain_lb
 0002:0005517D       aGrafsTHoriz_lb
 0002:0005518F       aTeam1_dat
 0002:00055199       aTeam2_dat
 0002:000551A3       aTeam3_dat
 0002:000551AD       aSetup_dat
 0002:000551B7       aMenu_xmi
 0002:000551C0       aPressEscToReturnToDosOrSpaceToCont
 0002:000551FA       aErrorIncorrectDosVersion5_0OrHighe
 0002:00055230       aErrorWrongProcessor80386OrAboveReq
 0002:0005525F       aErrorInsufficientBaseMemory_
 0002:00055283       aErrorInsufficientXmsMemory_
 0002:000552A6       aErrorErrorInitializingXms_
 0002:000552C8       convertKeysTable
 0002:00055336       frameColorsTable
 0002:00055356       nextEntryDirectionOffsets
 0002:0005535E       g_pitchDatBuffer
 0002:00057A8E       g_currentMenu
 0002:000593F2       leaguesTableCopy
 0002:0005C682       skillsPerQuadrant
 0002:0005C79E       quadrantDistanceFactor
 0002:0005CC68       tact_4_4_2
 0002:0005CDE0       tact_5_4_1
 0002:0005CF58       tact_4_5_1
 0002:0005D0D0       tact_5_3_2
 0002:0005D248       tact_3_5_2
 0002:0005D3C0       tact_4_3_3
 0002:0005D538       tact_4_2_4
 0002:0005D6B0       tact_3_4_3
 0002:0005D828       tacticsSweep
 0002:0005D9A0       tact_5_2_3
 0002:0005DB18       tacticsAttack
 0002:0005DC90       tacticsDefend
 0002:0005DE08       g_tacticsTable
 0002:0005DE54       priceSkillPonders
 0002:0005DEE0       quadrantCoordinatesToBallQuadrant
 0002:0005F3B2       table_def_names
 0002:0005F3C6       table_def_surnames
 0002:0005F3DA       aChris
 0002:0005F3E0       aChapman
 0002:0005F3E8       aJon
 0002:0005F3EC       aHare
 0002:0005F3F1       aGraeme
 0002:0005F3F8       aBoxall
 0002:0005F3FF       aMark
 0002:0005F404       aDearsley
 0002:0005F40D       aDavid
 0002:0005F413       aWilkin
 0002:0005F420       positionDefensiveness
 0002:0005F436       playersPositionsByTactics
 0002:0005F47E       tact_4_4_2_Positions
 0002:0005F489       tact_5_4_1_Positions
 0002:0005F494       tact_4_5_1_Positions
 0002:0005F49F       tact_5_3_2_Positions
 0002:0005F4AA       tact_3_5_2_Positions
 0002:0005F4B5       tact_4_3_3_Positions
 0002:0005F4C0       tact_4_2_4_Positions
 0002:0005F4CB       tact_3_4_3_Positions
 0002:0005F4D6       tactSweepPositions
 0002:0005F4E1       tact_5_2_3_Positions
 0002:0005F4EC       tactAttackPositions
 0002:0005F4F7       tactDefendPositions
 0002:0005F502       USER_A_Positions
 0002:0005F50D       USER_B_Positions
 0002:0005F518       USER_C_Positions
 0002:0005F523       USER_D_Positions
 0002:0005F52E       USER_E_Positions
 0002:0005F539       USER_F_Positions
 0002:0005F544       saveFileTitle
 0002:0005F58A       oldPlayerSkill
 0002:0005F58C       newPlayerSkill
 0002:0005F58E       playerPositionsArray
 0002:0005F5AE       oldPlayerPositionsArray
 0002:0005F5CE       team1SelectedPlayerIndex
 0002:0005F5D0       team2SelectedPlayerIndex
 0002:0005F5D2       ballRow
 0002:0005F5D4       ballColumn
 0002:0005F5D6       editTacticsBallLocation
 0002:0005F5D8       chooseTacticsTeamPtr
 0002:0005F5DC       editTacticsPlayerNumbers
 0002:0005F5E0       editTacticsCurrentTactics
 0002:0005F752       savedCurrentTactics
 0002:0005F8C4       numPlayersAtQuadrant
 0002:0005F8C6       totalSkillsFactorSum
 0002:0005F9A4       plPositions
 0002:0005F9CE       pitch_type_or_season_for_diy
 0002:0005F9D0       diy_league_starting_month
 0002:0005F9D2       diy_league_ending_month
 0002:0005F9D4       diy_league_look_only
 0002:0005F9D6       diy_league_select_teams
 0002:0005F9DE       number_of_diy_results
 0002:0005F9E0       current_diy_line
 0002:0005F9EC       diy_left_team_ptr
 0002:0005F9F0       diy_right_team_ptr
 0002:0005F9F4       diy_left_team_result
 0002:0005F9F6       diy_right_team_result
 0002:0005F9FA       randomTable
 0002:0005FDAE       edit_teams_team
 0002:00060306       editTeamsBuffer
 0002:0006AE08       editTeamsSaveVarsArea
 0002:000708DE       pl1Coach
 0002:000708E0       pl2Coach
 0002:000708E2       leftTeamCoachNo
 0002:000708E4       rightTeamCoachNo
 0002:000708E6       leftTeamPlayerNo
 0002:000708E8       rightTeamPlayerNo
 0002:000708EA       plg_D0_param
 0002:000708EC       isGameFriendly
 0002:000708F0       secondLeg
 0002:000708F2       gamePitchTypeOrSeason
 0002:000708F4       gamePitchType
 0002:000708F6       gameSeason
 0002:000708F8       gameCanceled
 0002:000708FA       pl1Tactics
 0002:000708FC       pl2Tactics
 0002:000708FE       team1Computer
 0002:00070900       team2Computer
 0002:00070902       ingameGameLength
 0002:00070904       extraTimeState
 0002:00070906       penaltiesState
 0002:0007090A       team1GoalsFirstLeg
 0002:0007090C       team2GoalsFirstLeg
 0002:0007090E       team1PenaltyGoals
 0002:00070910       team2PenaltyGoals
 0002:00070912       plg_D3_param
 0002:00070914       hilStarted
 0002:00070916       team1AllowRedCards
 0002:00070918       team2AllowRedCards
 0002:00070AA5       whiteGuyConvertTable
 0002:00070ABF       gingerGuyConvertTable
 0002:00070AD9       blackGuyConvertTable
 0002:00070AF3       skinAndHairColorConversionTable
 0002:00070AFF       pitchNumber
 0002:00070B01       leftTeamPtr
 0002:00070B05       rightTeamPtr
 0002:00070B09       team1NumSubs
 0002:00070B0B       team2NumSubs
 0002:00070B0D       team1GoalkeeperReplaced
 0002:00070B0F       team2GoalkeeperReplaced
 0002:00070B11       team1MostFrequentFace
 0002:00070B13       team2MostFrequentFace
 0002:00070B35       showingStats
 0002:00070B37       showStats
 0002:00070B39       statsTimeout
 0002:00070B3B       isGoalAttempt
 0002:00070B3D       team1Scorers
 0002:00070D4D       team2Scorers
 0002:00070F5D       team1ScorerSpritesWidths
 0002:00070F6D       team2ScorerSpritesWidths
 0002:00070F7D       resultTimer
 0002:00070F7F       timeVar
 0002:00070F81       deadTimer01
 0002:00070FA3       playerNumberZOffset
 0002:00070FB3       next_camera_positions
 0002:00070FF3       cameraXVelocity
 0002:00070FF5       cameraYVelocity
 0002:00070FF7       hideBallShadow
 0002:00070FFB       lastPlayerTurnFlags
 0002:00070FFE       frameIndicesTablesStart
 0002:0007105E       playerRunningUpTeam1
 0002:00071068       playerRunningDownTeam1
 0002:00071072       playerRunningRightTeam1
 0002:0007107C       playerRunningLeftTeam1
 0002:00071086       playerRunningUpRightTeam1
 0002:00071090       playerRunningUpLeftTeam1
 0002:0007109A       playerRunningDownRightTeam1
 0002:000710A4       playerRunningDownLeftTeam1
 0002:000710AE       spriteStandingFacingUp
 0002:000710B2       spriteStandingFacingBottom
 0002:000710B6       spriteStandingFacingRight
 0002:000710BA       spriteStandingFacingLeft
 0002:000710BE       spriteStandingFacingUpRight
 0002:000710C2       spriteStandingFacingTopLeft
 0002:000710C6       spriteStandingFacingBottomRight
 0002:000710CA       spriteStandingFacingBottomLeft
 0002:0007124E       team1_injured_player_top_right_table
 0002:00071258       team1_injured_player_top_left_table
 0002:00071262       playerRunningUpTeam2
 0002:0007126C       playerRunningDownTeam2
 0002:00071276       playerRunningRightTeam2
 0002:00071280       playerRunningLeftTeam2
 0002:0007128A       playerRunningUpRightTeam2
 0002:00071294       playerRunningUpLeftTeam2
 0002:0007129E       playerRunningDownRightTeam2
 0002:000712A8       playerRunningDownLeftTeam2
 0002:0007147E       team2_injured_player_top_right_table
 0002:00071488       team2_injured_player_top_left_table
 0002:00071492       goalkeeperRunningUpTeam1
 0002:0007149C       goalkeeperRunningDownTeam1
 0002:000714A6       goalkeeperRunningRightTeam1
 0002:000714B0       goalkeeperRunningLeftTeam1
 0002:000714BA       goalkeeperRunningUpRightTeam1
 0002:000714C4       goalkeeperRunningUpLeftTeam1
 0002:000714CE       goalkeeperRunningDownRightTeam1
 0002:000714D8       goalkeeperRunningDownLeftTeam1
 0002:00071692       goalkeeperRunningUpTeam2
 0002:0007169C       goalkeeperRunningDownTeam2
 0002:000716A6       goalkeeperRunningRightTeam2
 0002:000716B0       goalkeeperRunningLeftTeam2
 0002:000716BA       goalkeeperRunningUpRightTeam2
 0002:000716C4       goalkeeperRunningUpLeftTeam2
 0002:000716CE       goalkeeperRunningDownRightTeam2
 0002:000716D8       goalkeeperRunningDownLeftTeam2
 0002:00071950       animTablesStart
 0002:00071950       static_header_anim_table
 0002:00071A54       static_strong_header_anim_table
 0002:00071AD6       jump_header_anim_table
 0002:00071B58       static_heading_anim_table
 0002:00071BDA       playerLostAnimTable
 0002:00071C5C       playerWonAnimTable
 0002:00071CDE       playerRunningAnimTable
 0002:00071D60       playerNormalStandingAnimTable
 0002:00071DE2       plTacklingAnimTable
 0002:00071EB6       player_tackled_anim_table
 0002:00071F08       goalie_catching_ball_anim_table
 0002:00071F8A       throwInPlAnimTable
 0002:0007200C       throw_in_anim_table
 0002:0007208E       doing_throw_in_anim_table
 0002:00072192       left_goalie_jumping_high_anim_table
 0002:00072296       right_goalie_jumping_high_anim_table
 0002:00072318       left_goalie_jumping_low_anim_table
 0002:0007239A       right_goalie_jumping_low_anim_table
 0002:00072520       plGettingYellowCardAnimTable
 0002:000725A2       plGettingRedCardAnimTable
 0002:00072624       playerGettingBookedAnimTable
 0002:000726A6       pl_injured_anim_table
 0002:00072728       ref_coming_anim_table
 0002:0007274A       ref_waiting_anim_table
 0002:0007277C       ref_yellow_card_anim_table
 0002:0007279E       refRedCardAnimTable
 0002:000727C0       refSecondYellowAnimTable
 0002:000727E2       goalBasePtr
 0002:000727E6       nextGoalPtr
 0002:000727EA       replayState
 0002:000727EC       userRequestedReplay
 0002:000727F0       currentGoalPtr
 0002:000727F4       currentHilPtr
 0002:000727F8       cameraCoordinatesInvalid
 0002:000727FA       write_only_var_02
 0002:00072818       dead_var_02
 0002:00072824       forceLeftTeam
 0002:00072826       ballMovingFrameIndices
 0002:00072830       ballStaticFrameIndices
 0002:00072836       goalCounter
 0002:00072838       AI_maxStoppageTime
 0002:0007283A       goalCameraMode
 0002:0007283C       currentHilBuffer
 0002:00077274       hilFileBuffer
 0002:00077FCC       hilFileHeader
 0002:00078030       hilFileTextBuffer
 0002:00078094       hilNumGoals
 0002:00078096       hilTeam1Goals
 0002:00078098       hilTeam2Goals
 0002:0007809A       hilPitchNumber
 0002:0007809C       hilMaxSubstitutes
 0002:0007809E       hilStartOfGoalsBuffer
 0002:0007CAD6       ingameHilBuffer
 0002:000A66CE       numReplaysInHilFile
 0002:000A66D0       hilSceneNumber
 0002:000A66D2       goIntoHighlightsLoop
 0002:000A66DC       menuCycleTimer
 0002:000A66E2       scrollTileX
 0002:000A66E4       scrollTileOffsetX
 0002:000A66E6       scrollTileY
 0002:000A66E8       scrollTileOffsetY
 0002:000A66EA       vscreenDeltaX
 0002:000A66EC       vscreenDeltaY
 0002:000A66F0       copyFirstXTile
 0002:000A66F2       copyFirstYTile
 0002:000A66F4       zero01
 0002:000A670C       xPitchDatOffset
 0002:000A670E       yPitchDatOffset
 0002:000A6718       patternTableHorz
 0002:000A6738       patternTableVert
 0002:000A6758       vsPtr
 0002:000A675C       screenWidth
 0002:000A6764       numSpritesSaved
 0002:000A6766       savedSprites
 0002:000A7768       array03
 0002:000A8768       clipped
 0002:000A876A       menuitem_colortable
 0002:000A877A       let_some_chars_flag
 0002:000A877C       averagePlayerPrice
 0002:000A877E       gameTeam1
 0002:000A8782       gameTeam2
 0002:000A8786       gameRandValue
 0002:000A8788       team1AppPercent
 0002:000A878A       team2AppPercent
 0002:000A8868       skill_div
 0002:000A8870       show_stadium_var
 0002:000A887A       previousMenuItem
 0002:000A8880       inTransferMarketMenu
 0002:000A8882       goalTypeScored
 0002:000A888A       loadEndingSampleFlag
 0002:000A888C       someFlag2
 0002:000A8890       copySpriteAllowAND
 0002:000A8892       pal48Entries
 0002:000A88C2       stateGoal
 0002:000A88C4       bumpBigSFrame
 0002:000A88C6       team1Ptr
 0002:000A88CA       team2Ptr
 0002:000A88CE       goal1Ptr
 0002:000A88D2       goal2Ptr
 0002:000A88DE       aCharset_dat
 0002:000A88EA       aSprite_dat
 0002:000A88F5       aTeam1_dat_0
 0002:000A88FF       aTeam2_dat_0
 0002:000A8909       aTeam3_dat_0
 0002:000A8913       aGoal1_dat
 0002:000A891D       aBench_dat
 0002:000A8927       aScore_dat
 0002:000A8931       aBenc2_dat
 0002:000A893B       moreExpensiveTeamsCount
 0002:000A893D       spriteFixupFlag
 0002:000A893F       searchAlsoTacAndHil
 0002:000A8943       pl1IsntPlayer
 0002:000A8945       team_A_name
 0002:000A8956       team_B_name
 0002:000A8A6D       g_exitGameFlag
 0002:000A8A71       team_no_that_scored
 0002:000A8A73       team_data_ptr
 0002:000A8A77       team_scored_ptr
 0002:000A8A7B       fansSidesSwapped
 0002:000A8A7D       pl_name_for_message
 0002:000A8A81       nat_teams_rand_limit1
 0002:000A8A83       num_national_teams
 0002:000A8A87       national_teams
 0002:000A8DE1       goalScored
 0002:000A8DE3       runSlower
 0002:000A8DE5       playerScoredPtr
 0002:000A8DE9       lastTeamScoredNumber
 0002:000A8DEB       nobodysBallTimer
 0002:000A8DED       writeOnlyAtEndOfHalf
 0002:000A8DEF       spritesIndex
 0002:000AAECF       trainingGame
 0002:000AAEE0       strongHeaderUpFrames
 0002:000AAED1       useColorTable
 0002:000AB3A2       choosingPreset
 0002:000AB3A4       numberOfFiles
 0002:000AB3A8       foundFilenamesBuffer
 0002:000AF48A       teamSkillDiffAfterChange
 0002:000AF494       is_national_squad
 0002:000AF5D6       squadMenu
 0002:000AFAAC       playedIntroSample
 0002:000AFAAE       aArcSoccer_bin
 0002:000AFABF       introTimerSemaphor
 0002:000AFAC1       introCountDownTimer
 0002:000AFAC3       introAborted
 0002:000AFAC5       introWaitInterval
 0002:000AFAC6       introAnimationTimer
 0002:000AFAC7       introSampleSize
 0002:000AFADA       fill256Addr
 0002:000AFAE2       soccerBinPtr
 0002:000AFAEA       soccerBinSec2
 0002:000AFAEE       soccerBinSec3
 0002:000AFAF2       mouseStatus
 0002:000AFAF4       introFrameDataOffset
 0002:000AFAF8       introFrameDataChunkBoundary
 0002:000AFAFC       introFirstChunkLoaded
 0002:000AFAFD       introFrameDataSize
 0002:000AFB01       introNumFrames
 0002:000AFB0D       soccerBinSec4
 0002:000AFB11       soccerBinHandle
 0002:000AFB15       soccerBinOpened
 0002:000AFB16       introCurrentFrameDataPtr
 0002:000AFB1C       introTickCounter
 0002:000AFB20       soccerBinFileName
 0002:000AFB2A       soccerBinSec3Copy
 0002:000AFB34       savedPalette
 0002:000AFE34       aSwtitle_256
 0002:000AFE40       aFill_256
 0002:000AFE4E       menuCursorFrame
 0002:000AFE50       inputingTextOk
 0002:000AFE56       gameCommentaries
 0002:000AFE58       skipIntro
 0002:000AFE5A       aSfxEnglishEc
 0002:000AFE6B       a_raw
 0002:000AFE7C       goodPassTimer
 0002:000AFE7E       gotExtraMemoryForSamples
 0002:000AFE84       sfxSampleHandle
 0002:000AFE88       chantSampleHandle
 0002:000AFE8C       commentarySampleHandle
 0002:000AFE90       lastGoodTackleSample
 0002:000AFE92       lastJumpHeaderSample
 0002:000AFE94       lastPenaltyGoalSample
 0002:000AFE96       lastPenaltyMissSample
 0002:000AFE98       lastSavePenaltySample
 0002:000AFE9A       lastItsPenaltySample
 0002:000AFE9C       lastFoulSample
 0002:000AFE9E       last_harder_foul_sample
 0002:000AFEA0       lastGoodPassSample
 0002:000AFEA2       last_goal_frame_hit_sample
 0002:000AFEA4       last_bar_hit_sample
 0002:000AFEA6       last_hit_woodwork_sample
 0002:000AFEA8       last_keeper_claimed_sample
 0002:000AFEAA       last_near_miss_sample
 0002:000AFEAC       last_goalkeeper_saved_sample
 0002:000AFEAE       lastOwnGoalSample
 0002:000AFEB0       lastGoalSample
 0002:000AFEB2       playingRedCardSample
 0002:000AFEB4       playingYellowCardSample
 0002:000AFEB6       playingCornerSample
 0002:000AFEB8       playingSubstituteSample
 0002:000AFEBA       playingTacticsChangedSample
 0002:000AFEBC       playingThrowInSample
 0002:000AFEBE       playingGoodPassSample
 0002:000AFEC0       deletedSample
 0002:000AFEC4       performingPenalty
 0002:000AFEC6       commentaryOff
 0002:000AFEC8       soundEffectsTable
 0002:000AFEF8       sfxLowerQualityTable
 0002:000AFF28       introTeamCheersTable
 0002:000AFF40       resultsSamplesTable
 0002:000AFF60       startGameSamples
 0002:000AFF70       endGameSamples
 0002:000AFF7C       aSfxFxBgcrd3l_r
 0002:000AFF8F       aSfxFxBouncex_r
 0002:000AFFA2       aSfxFxHomegoal_
 0002:000AFFB6       aSfxFxKickx_raw
 0002:000AFFC7       aSfxFxWhistle_r
 0002:000AFFDA       aSfxFxMissgoal_
 0002:000AFFEE       aSfxFxEndgamew_
 0002:000B0002       aSfxFxFoul_raw
 0002:000B0012       aSfxFxThreenil_raw
 0002:000B0026       aSfxFxComblue_r
 0002:000B0039       aSfxFxChant4l_r
 0002:000B004C       aSfxFxChant10l_
 0002:000B0060       aSfxFxChant8l_r
 0002:000B0073       aSfxFx11Bgcrd3l
 0002:000B0089       aSfxFx11Bouncex
 0002:000B009F       aSfxFx11Homegoa
 0002:000B00B6       aSfxFx11Kickx_r
 0002:000B00CA       aSfxFx11Whistle
 0002:000B00E0       aSfxFx11Missgoa
 0002:000B00F7       aSfxFx11Endgame
 0002:000B010E       aSfxFx11Foul_ra
 0002:000B0121       aSfxFx11Chant4l
 0002:000B0137       aSfxFx11Chant10
 0002:000B014E       aSfxFx11Chant8l
 0002:000B0164       aSfxFxCombrown_
 0002:000B0178       aSfxFxComgreen_
 0002:000B018C       aSfxFxComred_ra
 0002:000B019E       aSfxFxComwhite_
 0002:000B01B2       aSfxFxComyelo_r
 0002:000B01C5       aHardOnenil_raw
 0002:000B01D5       aHardTwonil_raw
 0002:000B01E5       aHardThreenil_r
 0002:000B01F7       aHardFournil_ra
 0002:000B0208       aHardFivenil_ra
 0002:000B0219       aHardEasy_raw
 0002:000B0227       aHardErewego_ra
 0002:000B0238       aHardNotsing_ra
 0002:000B0249       aHardAwaysubl_r
 0002:000B025B       aHardHomesubl_r
 0002:000B026D       aHardGoalkick_r
 0002:000B027F       aHardCheer_raw
 0002:000B028E       aHardHomewinl_r
 0002:000B02A0       aHardBoowhisl_r
 0002:000B02B2       aHardCheer_ra_0
 0002:000B02C1       introTeamCheersIndices
 0002:000B02D1       introCheerSize
 0002:000B02D5       resultsSampleSize
 0002:000B02ED       goalSamples
 0002:000B032D       goalkeeperSavedSamples
 0002:000B036D       ownGoalSamples
 0002:000B03AD       nearMissesSamples
 0002:000B03CD       goalFrameHitSamples
 0002:000B040D       hitWoodworkSamples
 0002:000B044D       barHitSamples
 0002:000B045D       keeperClaimedSamples
 0002:000B049D       goodTackleSamples
 0002:000B04BD       goodPassSamples
 0002:000B04DD       harderFoulSamples
 0002:000B051D       foulSamples
 0002:000B053D       itsPenaltySamples
 0002:000B055D       savedPenaltySamples
 0002:000B059D       missedPenaltySamples
 0002:000B05BD       penaltyGoalSamples
 0002:000B05F5       corner_samples_table
 0002:000B0615       tacticsChangeSamplesTable
 0002:000B0635       playerSubstitutedSamplesTable
 0002:000B0655       redCardSamplesTable
 0002:000B0695       drawSamples
 0002:000B06B5       completeRoutSamples
 0002:000B06D5       sensationalGameSamples
 0002:000B06F5       yellowCardSamplesTable
 0002:000B0735       throwInSamplesTable
 0002:000B0755       aSfxPierceM158_
 0002:000B076C       aSfxPierceM15_0
 0002:000B0783       aSfxPierceM15_1
 0002:000B079A       aSfxPierceM15_2
 0002:000B07B1       aSfxPierceM15_3
 0002:000B07C8       aSfxPierceM15_4
 0002:000B07DF       aSfxPierceM313_
 0002:000B07F6       aSfxPierceM31_0
 0002:000B080D       aSfxPierceM31_1
 0002:000B0824       aSfxPierceM196_
 0002:000B083B       aSfxPierceM19_0
 0002:000B0852       aSfxPierceM19_1
 0002:000B0869       aSfxPierceM233_
 0002:000B0880       aSfxPierceM15_5
 0002:000B0897       aSfxPierceM15_6
 0002:000B08AE       aSfxPierceM15_7
 0002:000B08C5       aSfxPierceM15_8
 0002:000B08DC       aSfxPierceM15_9
 0002:000B08F3       aSfxPierceM1_10
 0002:000B090A       aSfxPierceM10_j
 0002:000B0920       aSfxPierceM10_k
 0002:000B0936       aSfxPierceM31_2
 0002:000B094D       aSfxPierceM31_3
 0002:000B0964       aSfxPierceM31_4
 0002:000B097B       aSfxPierceM31_5
 0002:000B0992       aSfxPierceM31_6
 0002:000B09A9       aSfxPierceM31_7
 0002:000B09C0       aSfxPierceM31_8
 0002:000B09D7       aSfxPierceM10_d
 0002:000B09ED       aSfxPierceM10_e
 0002:000B0A03       aSfxPierceM10_f
 0002:000B0A19       aSfxPierceM10_g
 0002:000B0A2F       aSfxPierceM10_h
 0002:000B0A45       aSfxPierceM10_r
 0002:000B0A5B       aSfxPierceM10_s
 0002:000B0A71       aSfxPierceM10_t
 0002:000B0A87       aSfxPierceM10_i
 0002:000B0A9D       aSfxPierceM10_u
 0002:000B0AB3       aSfxPierceM349_
 0002:000B0ACA       aSfxPierceM34_0
 0002:000B0AE1       aSfxPierceM34_1
 0002:000B0AF8       aSfxPierceM365_
 0002:000B0B0F       aSfxPierceM31_9
 0002:000B0B26       aSfxPierceM3_10
 0002:000B0B3D       aSfxPierceM34_2
 0002:000B0B54       aSfxPierceM3_11
 0002:000B0B6B       aSfxPierceM1_11
 0002:000B0B82       aSfxPierceM195_
 0002:000B0B96       aSfxPierceM19_2
 0002:000B0BAD       aSfxPierceM19_3
 0002:000B0BC4       aSfxPierceM19_4
 0002:000B0BDB       aSfxPierceM19_5
 0002:000B0BF2       aSfxPierceM19_6
 0002:000B0C09       aSfxPierceM19_7
 0002:000B0C20       aSfxPierceM19_8
 0002:000B0C37       aSfxPierceM19_9
 0002:000B0C4E       aSfxPierceM1_12
 0002:000B0C65       aSfxPierceM1_13
 0002:000B0C7C       aSfxPierceM1_14
 0002:000B0C93       aSfxPierceM1_15
 0002:000B0CAA       aSfxPierceM23_0
 0002:000B0CC1       aSfxPierceM23_1
 0002:000B0CD8       aSfxPierceM23_2
 0002:000B0CEF       aSfxPierceM23_3
 0002:000B0D06       aSfxPierceM23_4
 0002:000B0D1D       aSfxPierceM23_5
 0002:000B0D34       aSfxPierceM23_6
 0002:000B0D4B       aSfxPierceM23_7
 0002:000B0D62       aSfxPierceM33_2
 0002:000B0D78       aSfxPierceM33_3
 0002:000B0D8E       aSfxPierceM33_4
 0002:000B0DA4       aSfxPierceM33_5
 0002:000B0DBA       aSfxPierceM33_6
 0002:000B0DD0       aSfxPierceM33_8
 0002:000B0DE6       aSfxPierceM33_a
 0002:000B0DFC       aSfxPierceM33_b
 0002:000B0E12       aHardM10_v__raw
 0002:000B0E22       aHardM10_w__raw
 0002:000B0E32       aHardM10_x__raw
 0002:000B0E42       aHardM10_y__raw
 0002:000B0E52       aHardM10_z__raw
 0002:000B0E62       aHardM313_1__ra
 0002:000B0E73       aHardM313_2__ra
 0002:000B0E84       aHardM313_3__ra
 0002:000B0E95       aHardM10_5__raw
 0002:000B0EA5       aHardM10_7__raw
 0002:000B0EB5       aHardM10_8__raw
 0002:000B0EC5       aHardM10_9__raw
 0002:000B0ED5       aHardM10_a__raw
 0002:000B0EE5       aHardM10_b__raw
 0002:000B0EF5       aHardM233_j__ra
 0002:000B0F06       aHardM233_k__ra
 0002:000B0F17       aHardM233_l__ra
 0002:000B0F28       aHardM233_m__ra
 0002:000B0F39       aHardM10_3__raw
 0002:000B0F49       aHardM10_4__raw
 0002:000B0F59       aHardM406_3__ra
 0002:000B0F6A       aHardM406_8__ra
 0002:000B0F7B       aHardM406_7__ra
 0002:000B0F8C       aHardM406_9__ra
 0002:000B0F9D       aHardM406_f__ra
 0002:000B0FAE       aHardM406_g__ra
 0002:000B0FBF       aHardM406_h__ra
 0002:000B0FD0       aHardM406_i__ra
 0002:000B0FE1       aHardM406_j__ra
 0002:000B0FF2       aHardM196_8__ra
 0002:000B1003       aHardM196_9__ra
 0002:000B1014       aHardM196_a__ra
 0002:000B1025       aHardM196_b__ra
 0002:000B1036       aHardM196_c__ra
 0002:000B1047       aHardM196_d__ra
 0002:000B1058       aHardM196_e__ra
 0002:000B1069       aHardM196_f__ra
 0002:000B107A       aHardM196_g__ra
 0002:000B108B       aHardM196_h__ra
 0002:000B109C       aHardM196_i__ra
 0002:000B10AD       aHardM196_j__ra
 0002:000B10BE       aHardM443_7__ra
 0002:000B10CF       aHardM443_8__ra
 0002:000B10E0       aHardM443_9__ra
 0002:000B10F1       aHardM443_a__ra
 0002:000B1102       aHardM443_b__ra
 0002:000B1113       aHardM443_c__ra
 0002:000B1124       aHardM443_d__ra
 0002:000B1135       aHardM443_e__ra
 0002:000B1146       aHardM443_f__ra
 0002:000B1157       aHardM443_g__ra
 0002:000B1168       aHardM443_h__ra
 0002:000B1179       aHardM443_i__ra
 0002:000B118A       aHardM443_j__ra
 0002:000B119B       commentaryTable
 0002:000B12CF       jumpHeadersSamples
 0002:000B1349       firstCdLetter
 0002:000B134A       aSwos_inf
 0002:000B1355       aVesaDriverNotF
 0002:000B140B       vesaFunctionsTable
 0002:000B144F       retraceTakesLonger
 0002:000B1450       PIT_countdown
 0002:000B1452       aSwos_xmi
 0002:000B145B       root_dir
 0002:000B145D       defaultDiskNumber
 0002:000B1490       rmRegs
 0002:000B14C2       mem1kSeg
 0002:000B14C4       mem1kSelector
 0002:000B14C6       linAdr1k
 0002:000B14CA       cdromLettersBuffer
 0002:000B15CA       numOfCdrom
 0002:000B15CC       cdDriveLetter
 0002:000B15D3       request_headers
 0002:000B162E       CDROM_audio_level
 0002:000B1635       song_position
 0002:000B163D       cdAudioPlaying
 0002:000B163F       g_prevScanCode
 0002:000B1641       timerBoolean
 0002:000B1645       aAsave_256
 0002:000B1665       timerProcSemaphore
 0002:000B166B       freeMemBuffer
 0002:000B16EB       SWOS_StackTop
 0002:000B16F4       dosMemSegment
 0002:000B16F6       dosMemSelector
 0002:000B16F8       dosMemLinAdr
 0002:000B16FC       aErrorCdromDriverError_
 0002:000B171B       aError8MegVersion000000kMore
 0002:000B17B5       aErrorInsufficentBaseMemo
 0002:000B17E8       a386ProcessorFoundIntroUnavailbleSk
 0002:000B1820       aSensibleWorldOfSoccerV2_0
 0002:000B1841       midiPlaying
 0002:000B1843       maxKbInMaxBlock
 0002:000B1847       joyLimit
 0002:000B1848       skipFade
 0002:000B1850       noReplay
 0002:000B1852       resetHilPtrFlag
 0002:000B1854       saveHighlights
 0002:000B1856       fadeAndSaveReplay
 0002:000B1858       spaceReplayTimer
 0002:000B185A       subs_write_only
 0002:000B185C       playHighlightFlag
 0002:000B185E       subsTeamsSwapped
 0002:000B1860       subsTrainingTopTeam
 0002:000B1864       subsStateCopy
 0002:000B1866       inSubstitutesMenu
 0002:000B1868       cameraLeavingSubsTimer
 0002:000B186A       benchOff
 0002:000B186C       leavingSubsMenu
 0002:000B186E       waitForPlayerToLeaveTimer
 0002:000B1870       goToSubsTimer
 0002:000B1872       bench1Called
 0002:000B1874       bench2Called
 0002:000B1876       cameraLeavingSubsLimit
 0002:000B1878       subsSomeCoordinate
 0002:000B187C       subsMenuX
 0002:000B187E       formationMenuX
 0002:000B1880       pl_leaving_x
 0002:000B1884       pl_coming_x
 0002:000B1886       pl_coming_y
 0002:000B1888       pl_substituted_x
 0002:000B188A       pl_substituted_y
 0002:000B1890       substituteInProgress
 0002:000B1892       substitutedPlSprite
 0002:000B1896       teamThatSubstitutes
 0002:000B189A       benchPlayerIndex
 0002:000B189C       subsState
 0002:000B189E       selectedFormationEntry
 0002:000B18A0       plToBeSubstitutedOrd
 0002:000B18A2       plToBeSubstitutedPos
 0002:000B18A4       plToEnterGameIndex
 0002:000B18A6       benchTeam
 0002:000B18AA       benchTeamGame
 0002:000B18B0       pl1BenchTimeoutCounter
 0002:000B18B2       pl2BenchTimeoutCounter
 0002:000B18B4       subsPrevPl1Direction
 0002:000B18B6       subsPrevPl2Direction
 0002:000B18B8       subsPl1TapCount
 0002:000B18BA       subsPl2TapCount
 0002:000B18BC       pl1BenchBlockWhileHoldingDirection
 0002:000B18BE       pl2BenchBlockWhileHoldingDirection
 0002:000B18C0       subsBlockDirections
 0002:000B18C2       subsBlockFire
 0002:000B18C4       subsPrevDirection
 0002:000B18C6       subsMovementDelayTimer
 0002:000B18C8       subsDirection
 0002:000B18CA       ingameJoyFire
 0002:000B18CB       ingame_joy_secondary_fire
 0002:000B18CC       subsFireTimer
 0002:000B18CE       selectedPlayerInSubs
 0002:000B18D0       seed
 0002:000B18D1       randXorIndex
 0002:000B18D2       randXorByte
 0002:000B18D4       paused
 0002:000B18D6       crowdChantsOn
 0002:000B18D8       gameAborted
 0002:000B18DA       playerPositionsScoringChances
 0002:000B1928       replaySelected
 0002:000B193E       colorfulness
 0002:000B1946       colorMix
 0002:000B194A       strongestComponentResult
 0002:000B194E       strongestComponent
 0002:000B1952       weakestComponent
 0002:000B1956       colorIntensity
 0002:000B195A       srcColorRed
 0002:000B195E       srcColorGreen
 0002:000B1962       srcColorBlue
 0002:000B1972       colorfulnessTable
 0002:000B1F74       show_prerelease_counter
 0002:000B1F76       quitSelected
 0002:000B1F78       optionsMenu
 0002:000B21C6       pitchTypeStrTable
 0002:000B21F0       gameLengthStrTable
 0002:000B2206       auto_replays_str_table
 0002:000B2214       all_pl_teams_equal_str_table
 0002:000B2222       autoSaveHlStrTable
 0002:000B2230       menuMusicStrTable
 0002:000B223E       commentaryStrTable
 0002:000B224C       chairmanScenesStrTable
 0002:000B225C       aDemo1_car
 0002:000B2266       aSensibleWorl_0
 0002:000B2284       aTheMostSuccess
 0002:000B22B0       aForPcAndPcCdRo
 0002:000B22C5       aIncludesAllThe
 0002:000B22EF       aForOver1400Clu
 0002:000B231A       aExtensiveComme
 0002:000B234B       aSupurbRendered
 0002:000B2379       aDimensionToThe
 0002:000B238F       aThreeMinutePop
 0002:000B23B3       aCdMusicSoundTr
 0002:000B23C8       SWOS_MainMenu
 0002:000B25A8       aDemo_dat_0
 0002:000B25B1       aPlayDemo
 0002:000B25BB       aDemo
 0002:000B25C0       aSensibleWorldOfSoccer
 0002:000B25D9       aReleasedNovember1995
 0002:000B25F0       aByRenegade
 0002:000B25FC       aAWarnerInteractiveEntertainmentCom
 0002:000B2627       aOriginalVersionBySensibleSoftware
 0002:000B264D       aPcVersionByWaveSoftware
 0002:000B2669       aCdVersionContainsFullMatchCommenta
 0002:000B2693       aRenderedRewardSequences
 0002:000B26AD       aAnd3MinutePopVideo
 0002:000B26C4       friendly_game_menu
 0002:000B2828       pitch_type_or_season_table
 0002:000B2836       friendly_pitch_type_table
 0002:000B285C       friendly_season_table
 0002:000B2892       friendly_ok
 0002:000B2894       pitch_type_or_season
 0002:000B2896       friendly_pitch_type
 0002:000B2898       friendly_season
 0002:000B289A       minSubstitutes
 0002:000B289C       maxSubstitutes
 0002:000B28F6       aDemo_dat
 0002:000B2A38       teamsCountryNumbers
 0002:000B2C58       skipLeagueNumbers
 0002:000B2C9C       competition_stats_menu
 0002:000B2D4C       null_menu
 0002:000B2D70       competitionTopGoalScorersMenu
 0002:000B31CC       top_goal_scorers_menu
 0002:000B3530       InitHighestScorersTable
 0002:000B394E       SortHighestScorerTable
 0002:000B3AD1       GetScorerSurname
 0002:000B3B44       CompetitionTopGoalScorersInit
 0002:000B3D8A       CompetitionTopGoalScorersExit
 0002:000B3D8F       TopGoalScorersInit
 0002:000B40E6       TopGoalScorersBeforeDrawCommon
 0002:000B4569       TopGoalScorersExit
 0002:000B4572       currentGame
 0002:000B4582       left_team_name
 0002:000B4586       right_team_name
 0002:000B458A       cglm_team_control
 0002:000B458C       column_marker
 0002:000B458E       cglm_var3
 0002:000B4590       game_list_y
 0002:000B4592       menu_entry_height
 0002:000B4594       game_list_array
 0002:000B4604       nationalityOrdinal
 0002:000B4606       contestMenu
 0002:000B4A66       career_menu
 0002:000B4BE4       ofs_coach_or_player
 0002:000B4BF2       nationalities_ordinals_array
 0002:000B4C32       career_over_menu
 0002:000B4D44       viewCompetitionsMenu
 0002:000B4E5A       management_record_menu
 0002:000B5008       trophy_sprites
 0002:000B501C       current_season_number
 0002:000B50E8       chooseTeamsFriendly
 0002:000B5710       isFirstPlayerChoosingTeam
 0002:000B5712       currentSelectedPlayerIndexPtr
 0002:000B5716       showingCpuTeams
 0002:000B571B       playMatchMenu
 0002:000B5D29       sidePitchPositionsDefault
 0002:000B5D6B       sidePitchPositions_5_4_1
 0002:000B5DAD       sidePitchPositions_4_5_1
 0002:000B5DEF       sidePitchPositions_5_3_2
 0002:000B5E31       sidePitchPositions_3_5_2
 0002:000B5E73       sidePitchPositions_4_3_3
 0002:000B5EB5       sidePitchPositions_4_2_4
 0002:000B5EF7       sidePitchPositions_3_4_3
 0002:000B5F39       sidePitchPositionsSweep
 0002:000B5F7B       sidePitchPositions_5_2_3
 0002:000B5FBD       sidePitchPositionsAttack
 0002:000B5FFF       sidePitchPositionsDefend
 0002:000B6041       sidePitchSurnamePositionsTable
 0002:000B6089       is_A_team
 0002:000B608C       continueAbortMenu
 0002:000B6110       designDiyTournamentMenu
 0002:000B6BA0       designDiyCupMenu
 0002:000B73CC       diy_cup_look_only
 0002:000B73CE       diy_cup_select_teams
 0002:000B73D0       DIY_cup_menu
 0002:000B7974       design_diy_league_menu
 0002:000B7C40       diy_pitch_type_or_season_str_table
 0002:000B7C4E       diy_league_pitch_type_str_table
 0002:000B7C74       diy_league_moths_str_table
 0002:000B7CAA       diy_league_ending_month_str_table
 0002:000B7CE0       aDash2
 0002:000B7CE2       DIY_league_tournament_menu
 0002:000B8154       chooseTeamsMenu
 0002:000B8226       selectTeamsMenu
 0002:000B8944       chooseTeamsFriendlyMenu
 0002:000B8E04       diy_competition_menu
 0002:000B8EB4       tactic_cursor_frames
 0002:000B8EBC       kAngleCoeficients
 0002:000B96BC       kSineCosineTable
 0002:000B98BC       importMenuSelectedTactics
 0002:000B98BE       editTacticsCountryBuffer
 0002:000B9948       editTacticsNumPlayers
 0002:000B9954       some_menu_entry_ptr
 0002:000B9958       ballXQuadrantCoordinates
 0002:000B9962       ballYQuadrantCoordinates
 0002:000B9970       xQuadrantToCoordinates
 0002:000B998E       yQuadrantToCoordinates
 0002:000B99AE       arrowSpritesOffsets
 0002:000B99BE       littlePlayersConvertTable
 0002:000B99DE       editTacticsPlayerPositions
 0002:000B99F6       prevGameTime
 0002:000B99F8       markedPlayerNumber
 0002:000B99FA       editTacticsPitchStatus
 0002:000B99FC       chosenTactics
 0002:000B9A00       editTacticsPlayerX
 0002:000B9A02       editTacticsBallRow
 0002:000B9A04       editTacticsBallColumn
 0002:000B9A06       editTacticsLastBallLocation
 0002:000B9A0A       flipOnOff
 0002:000B9A0C       tacticsChangedFlag
 0002:000B9A10       chooseTacticsMenu
 0002:000B9B26       import_tactics_menu
 0002:000B9D66       editTacticsMenu
 0002:000BA142       flip_str_table
 0002:000BA16C       pitchWidth
 0002:000BA45A       squad_team_ptr
 0002:000BA45E       view_squad_title
 0002:000BA478       transferMarketMenu
 0002:000BA6CC       team_offering
 0002:000BA6D0       num_extra_players_wanted
 0002:000BA6D6       offerAmount
 0002:000BA6E0       player_selected
 0002:000BA6EA       buy_other_players_menu
 0002:000BA936       buy_player_menu
 0002:000BAA3C       offers_menu
 0002:000BAB72       offer_status
 0002:000BABDE       third_party_offer_menu
 0002:000BAE6A       view_squad_menu
 0002:000BB71E       select_representation_menu
 0002:000BBB62       aGeehrteAB
 0002:000BBB7A       a_flc
 0002:000BBB89       a_flc_0
 0002:000BBB90       job_offers_menu
 0002:000BBD28       chairman_memos_menu
 0002:000BBDC8       club_messages_table
 0002:000BBEF8       club_business_menu
 0002:000BC0B6       got_job_offer_menu
 0002:000BC22A       job_offer_ordinal
 0002:000BC22C       old_job_offer_ordinal
 0002:000BC22E       team_num_offering_job
 0002:000BC230       team_offering_job_ptr
 0002:000BC234       job_offer_funds
 0002:000BC238       edit_teams_menu
 0002:000BC994       edit_teams_prim_shirts
 0002:000BC998       edit_teams_prim_shirt_col_table
 0002:000BC9B8       edit_teams_shorts
 0002:000BC9BC       edit_teams_shorts_col_table
 0002:000BC9DC       edit_teams_socks
 0002:000BC9E0       edit_teams_socks_col_table
 0002:000BCA00       edit_teams_secondary_shirt
 0002:000BCA04       edit_teams_secondary_shirt_col_table
 0002:000BCA24       edit_teams_secondary_shorts
 0002:000BCA28       edit_teams_secondary_shorts_col_table
 0002:000BCA48       edit_teams_secondary_socks
 0002:000BCA4C       edit_teams_secondary_socks_col_table
 0002:000BCA6C       shirt_types_table
 0002:000BCAAC       shirts_index_table
 0002:000BCABC       edit_teams_selected_team
 0002:000BCAC0       save_custom_teams
 0002:000BCAC2       team_is_imported
 0002:000BCAC4       european_championship_menu
 0002:000BCAE6       versusMenu
 0002:000BCB6A       stadiumMenu
 0002:000BCFD2       stadiumMenuLittlePlayer
 0002:000BCFD4       littlePlayerSpriteGeneric
 0002:000BCFD6       littlePlayersColorTable
 0002:000BCFF6       littlePlayersSpriteTable
 0002:000BCFFE       aStad_256
 0002:000BD007       aFlag_256
 0002:000BD010       animPattermsRandomTable
 0002:000BD050       animatedPatterns
 0002:000BD060       patternsGoalCounter
 0002:000BD062       showFansCounter
 0002:000BD064       anim_patts_index
 0002:000BD066       patternPossibility
 0002:000BD068       otherTeamScored
 0002:000BD06A       animPatternsState
 0002:000BD418       tours_table
 0002:000BD728       benchPickTeamTimer
 0002:000BD72E       playerNumberString
 0002:000BD732       playerFacesTable
 0002:000BD738       benchColors
 0002:000BD74A       substitutesEntryColor
 0002:000BD74C       substitutesBorderColor
 0002:000BD74E       subsTitleEntryColor
 0002:000BD750       coach1_frames
 0002:000BD770       coach2_frames
 0002:000BD790       aFourStarsString3
 0002:000BD796       aFourStarsString
 0002:000BD79C       aPen
 0002:000BD7A6       aPen_0
 0002:000BD7B2       aOg
 0002:000BD7BC       aFourStarsString2
 0002:000BD7C2       alreadyScoredTable
 0002:000BD7CE       firstGoalScoredTable
 0002:000BD7DA       pitchNumbersTable
 0002:000BD7EA       goal_ptr_minus_4_copy
 0002:000BD7EE       current_goal_ptr_copy
 0002:000BD7F2       goal_ptr_copy
 0002:000BD7F6       next_goal_ptr_copy
 0002:000BD7FA       statsNumber
 0002:000BD7FF       savedCameraX
 0002:000BD801       savedCameraY
 0002:000BD806       nobodysBallLastFrame
 0002:000BD808       playerScoredPtrCopy
 0002:000BD80C       lastTeamScored
 0002:000BD810       lastPlayerPlayedCopy
 0002:000BD814       advertIndex
 0002:000BD816       advertSlideTimer
 0002:000BD818       currentAnimatedAdLine
 0002:000BD81A       advert1Pointers
 0002:000BD83A       advert2Pointers
 0002:000BD85A       advert3Pointers
 0002:000BD87A       blockAdvertisements
 0002:000BD88C       aPal_256
 0002:000BD894       yellowCardTable
 0002:000BD8B2       redCardTable
 0002:000BD8D0       secondYellowTable
 0002:000BD92B       facesFrequency
 0002:000BD92E       team1PlayersColorTable
 0002:000BD94E       team2PlayersColorTable
 0002:000BD96E       colorTableReserves
 0002:000BD9AE       bigNumbersColorConversionTable
 0002:000BDA5C       faces_array_1
 0002:000BDA5F       faces_array_2
 0002:000BDA62       goalieTable
 0002:000BDA76       copy_time_sprite
 0002:000BDA78       secondsSwitchAccumulator
 0002:000BDA7A       gameSeconds
 0002:000BDA7C       gameTime
 0002:000BDA80       timeDelta
 0002:000BDA82       gameLenSecondsTable
 0002:000BDA8A       end_game_counter
 0002:000BDA8C       pitchNormalColorTable
 0002:000BDAA7       pitchDryColorTable
 0002:000BDAC2       pitchWetColorTable
 0002:000BDADD       pitchSoftColorTable
 0002:000BDAF8       pitchHardColorTable
 0002:000BDB13       pitchFrozenColorTable
 0002:000BDB2E       pitchMuddyColorTable
 0002:000BDB4F       pitchTypeColorTables
 0002:000BDB6B       pitchTypeSeasonalProbabilities
 0002:000BDBBF       pitchTypeProbabilities
 0002:000BDBC6       aEngland_1
 0002:000BDBCE       aWestGermany
 0002:000BDBE0       teamSwitchCounter
 0002:000BDBE2       team1StatsData
 0002:000BDBF0       team2StatsData
 0002:000BDBFE       leftTeamData
 0002:000BDC8F       rightTeamData
 0002:000BDD20       playerHadBall
 0002:000BDD22       lastKeeperPlayed
 0002:000BDD26       lastTeamPlayed
 0002:000BDD2A       lastPlayerPlayed
 0002:000BDD2E       penalty
 0002:000BDD30       goalOut
 0002:000BDD32       stoppageTimerWriteOnly
 0002:000BDD34       fireBlocked
 0002:000BDD36       lastPlayedTeam
 0002:000BDD3A       stoppageTimerTotal
 0002:000BDD3C       stoppageTickTimer
 0002:000BDD3E       gameStatePl
 0002:000BDD40       gameState
 0002:000BDD42       breakCameraMode
 0002:000BDD44       eventTimer
 0002:000BDD46       foulXCoordinate
 0002:000BDD48       foulYCoordinate
 0002:000BDD4A       cameraDirection
 0002:000BDD4C       playerTurnFlags
 0002:000BDD4E       inGameCounter
 0002:000BDD50       breakState
 0002:000BDD52       substitutedPlDestX
 0002:000BDD54       substitutedPlDestY
 0002:000BDD56       substituted_pl_x
 0002:000BDD58       substituted_pl_y
 0002:000BDD5A       passOrKick
 0002:000BDD5C       halfNumber
 0002:000BDD5E       teamStarting
 0002:000BDD60       teamPlayingUp
 0002:000BDD62       playingPenalties
 0002:000BDD64       dontShowScorers
 0002:000BDD66       team1_penalty_attempts
 0002:000BDD68       team2_penalty_attempts
 0002:000BDD6A       penaltiesTimer
 0002:000BDD6C       team1_penalty_shooter_index
 0002:000BDD6E       team2_penalty_shooter_index
 0002:000BDD70       penalty_shooter_sprite
 0002:000BDD74       ball_friction
 0002:000BDDF4       defaultPlayerDestinations
 0002:000BDE14       leftThrowInBallFactor
 0002:000BDE34       rightThrowInBallFactor
 0002:000BDE54       penalty_ball_factor
 0002:000BDE74       upper_left_corner_ball_factor
 0002:000BDE94       upper_right_corner_ball_factor
 0002:000BDEB4       lower_left_corner_ball_factor
 0002:000BDED4       lower_right_corner_ball_factor
 0002:000BDF2C       goalKeeperClaimingBallHeight
 0002:000BDF3A       refVar
 0002:000BDF3C       injuriesForever
 0002:000BDF4C       whichCard
 0002:000BDF4E       bookedPlayer
 0002:000BDF52       lastTeamBooked
 0002:000BDF56       refTimer
 0002:000BDF58       randValueFromLenTables
 0002:000BDF5A       gameLength3mins
 0002:000BDF7A       gameLength5mins
 0002:000BDF9A       gameLength7mins
 0002:000BDFBA       gameLength10mins
 0002:000BDFDA       gameLengthTable
 0002:000BDFEA       ball_out_of_game_timer
 0002:000BDFEC       write_only_var_03
 0002:000BDFF0       aSfxFlcWincup_r
 0002:000BE003       aSfxFlcLosecp_r
 0002:000BE016       aSfxFlcPromote_
 0002:000BE02A       aSfxFlcLosemat_
 0002:000BE03E       aSfxFlcWinmtch_
 0002:000BE052       currentLine
 0002:000BE056       partOneImages
 0002:000BE05E       terminator
 0002:000BE062       partTwoImages
 0002:000BE072       terminator2
 0002:000BE076       aLoader1_256
 0002:000BE082       aOne_256
 0002:000BE08A       aTwo_256
 0002:000BE092       aThree_256
 0002:000BE09C       aFour_256
 0002:000BE0A5       aFive_256
 0002:000BE0AE       aSix_256
 0002:000BE0B6       aWar_256
 0002:000BE0BE       aLogo2_256
 0002:000BE0C8       aPitch1_blk
 0002:000BE0D8       aPitch2_blk
 0002:000BE0E8       aPitch3_blk
 0002:000BE0F8       aPitch4_blk
 0002:000BE108       aPitch5_blk
 0002:000BE118       aPitch6_blk
 0002:000BE128       big_S_pictureIndexArray
 0002:000BE168       spinBigS
 0002:000BE16A       big_S_index
 0002:000BE16C       cornerFlagPictureIndices
 0002:000BE18C       pitchFansConvertTable
 0002:000BE1B0       passingState
 0002:000BE1B2       ballNextX
 0002:000BE1B4       ballNextY
 0002:000BE1BA       playRefereeWhistle
 0002:000BE1BC       ballXQuadrantLimits
 0002:000BE1C6       ballYQuadrantLimits
 0002:000BE1D4       playerXQuadrantsCoordinates
 0002:000BE1F2       playerYQuadrantCoordinates
 0002:000BE212       ballQuadrantIndex
 0002:000BE214       ballXQuadrantDead
 0002:000BE216       ballYQuadrantDead
 0002:000BE218       playerXQuadrantOffset
 0002:000BE21A       playerYQuadrantOffset
 0002:000BE244       ball_speed_passing
 0002:000BE254       passing_speed_closer_than_2500
 0002:000BE256       passing_speed_closer_than_10000
 0002:000BE258       passing_speed_closer_than_22500
 0002:000BE25A       passing_speed_closer_than_40000
 0002:000BE25C       passing_speed_closer_than_62500
 0002:000BE25E       passing_speed_closer_than_90000
 0002:000BE260       passing_speed_closer_than_122500
 0002:000BE262       passing_speed_further_than_122500
 0002:000BE264       pl_releasing_ball_speed_increase
 0002:000BE266       ball_speed_when_kicking
 0002:000BE296       ball_speed_finishing
 0002:000BE2BE       ball_pl_offsets
 0002:000BE2DE       injury_level
 0002:000BE2E5       injury_level_already_injured
 0002:000BE2FC       tackle_values
 0002:000BE300       tackle_values_injured
 0002:000BE306       player_tackling_down_time
 0002:000BE316       computer_tackling_down_time
 0002:000BE326       playerSpeedsGameInProgress
 0002:000BE336       playerSpeedsGameStopped
 0002:000BE346       teamsStartingCoordinates
 0002:000BE39E       goalieSkillTables
 0002:000BE3BE       injuriesSpeedPenalty
 0002:000BE3CE       playerWithBallOffsets
 0002:000BE3F8       goalieSkill7Table
 0002:000BE59C       goalieSkill0Table
 0002:000BE5DA       staticHeaderPlayerSpeed
 0002:000BE5DC       numberBuffer
 0002:000BE5EB       plOrdinalsTable
 0002:000BE60B       plNamesLengthTable
 0002:000BE62B       plNamesLengthTableCopy
 0002:000BE64B       prevLastPlayer
 0002:000BE64F       prevLastTeamPlayed
 0002:000BE653       ballDefensiveX
 0002:000BE655       ballDefensiveY
 0002:000BE657       ballDefensiveZ
 0002:000BE659       ballNotHighX
 0002:000BE65B       ballNotHighY
 0002:000BE65D       ballNotHighZ
 0002:000BE65F       strikeDestX
 0002:000BE665       ballNextX_2
 0002:000BE667       ballNextY_2
 0002:000BE669       ballNextZ_dead
 0002:000BE66B       ballInUpperPenaltyArea
 0002:000BE66D       ballInLowerPenaltyArea
 0002:000BE66F       ballInGoalkeeperArea
 0002:000BE681       bottomBallOutOfPlayPositions
 0002:000BE701       topBallOutOfPlayPositions
 0002:000BE939       bottomStartingPositions
 0002:000BEE65       bottomPenaltyPositions
 0002:000BEE91       topPenaltyPositions
 0002:000BEF08       teamPlOfs24Table
 0002:000BEF44       some_AI_direction_allowed_flag
 0002:000BEF46       AI_beginPlayTimer
 0002:000BEF48       AI_rand
 0002:000BEF62       AI_counter
 0002:000BEF64       AI_team_num_maybe
 0002:000BEF70       dta
 0002:000BEF9C       asciizFileSpec
 0002:000BEF9D       ext1
 0002:000BEF9E       ext2
 0002:000BEF9F       ext3
 0002:000BEFA0       ext4
 0002:000BEFA4       numFiles
 0002:000BEFA6       totalNumberOfFiles
 0002:000BEFA8       savingFile
 0002:000BEFAA       menuTitle
 0002:000BEFAE       g_extension
 0002:000BEFB2       foundFilesPtrTable
 0002:000BF3B2       extensionsBuffer
 0002:000BF7B2       tmpFilenameBuffer
 0002:000BF7BF       selectedFilename
 0002:000BF7CC       numMatchedFilesDiv3
 0002:000BF7CE       numMatchedFilesCopy
 0002:000BF7D2       numMatchedFiles
 0002:000BF7D8       selectFilesMenu
 0002:000BFC08       highlights_menu
 0002:000BFCBC       aArcWin_flc
 0002:000BFCC8       aArcWcup_flc
 0002:000BFCD5       aArcProm_flc
 0002:000BFCE2       aArcRele_flc
 0002:000BFCEF       aArcLose_flc
 0002:000BFCFC       aArcLcup_flc
 0002:000BFD09       aFlcBall_flc
 0002:000BFD16       aFlcStad_flc
 0002:000BFD23       aFlcSen_256_flc
 0002:000BFD33       aFlcCredit_flc
 0002:000BFD42       aSwosflag_flc
 0002:000BFD4F       aFlcCredits_flc
 0002:000BFD5F       aFlcSensible_fl
 0002:000BFD7A       aUnableToOpenAnimation_
 0002:000BFD96       aAnimationFileError
 0002:000BFDB2       animation_file_handle
 0002:000C058A       skillValuePonders
 0002:000C0592       plPricesIncreaseTable
 0002:000C3288       page_offset
 0002:000C32C8       __GDAptr
 0002:000C32CC       __D16Infoseg
 0002:000C32D0       memoryLocked
 0002:000C32D8       lock_memory_2
 0002:000C32E8       _dynend
 0002:000C32EC       _curbrk
 0002:000C32F0       _LpCmdLine
 0002:000C32F4       _LpPgmName
 0002:000C32F8       _psp
 0002:000C32FC       _STACKLOW
 0002:000C3300       _STACKTOP
 0002:000C3318       __no87
 0002:000C331A       _Extender
 0002:000C331B       _ExtenderSubtype
 0002:000C331D       _Envptr
 0002:000C3321       _Envseg
 0002:000C3323       dos_major_ver
 0002:000C3324       dos_minor_ver
 0002:000C332C       timerFunctionsArray
 0002:000C336C       timerFunctions
 0002:000C34AC       oldInt8Ofs
 0002:000C34B0       oldInt8Seg
 0002:000C34B2       oldRealModeInt8Handler
 0002:000C34BE       int8Executing
 0002:000C3ED4       int8SavedSS
 0002:000C3ED8       int8SavedEsp
 0002:000C3F68       aSample
 0002:000C3FF0       aTimb_0
 0002:000C4286       aStackOverflow
 0002:000C4630       sampleHandles
 0002:000C46B0       maxSampleIndex
 0002:000C46B8       midiSequenceHandle
 0002:000C46BC       AILDIGDriver
 0002:000C46C0       commentarySample
 0002:000C46CC       htimer1
 0002:000C46D0       endGameSample
 0002:000C46D4       xmidiHandle
 0002:000C46D8       AIL_debug_file
 0002:000C46E0       AIL_SYS_DEBUG_flag
 0002:000C46EC       AIL_procedure_level
 0002:000C4774       AIL_error_buffer
 0002:000C4878       preferences_array_ptr
 0002:000C4FB8       _end

Program entry point at 0001:0008CA5C
